Microsoft (R) Macro Assembler Version 6.11		    12/01/25 03:04:06
main.asm						     Page 1 - 1


				INCLUDE Irvine32.inc
			      C ; Include file for Irvine32.lib             (Irvine32.inc)
			      C 
			      C ;OPTION CASEMAP:NONE		; optional: make identifiers case-sensitive
			      C 
			      C INCLUDE SmallWin.inc		; MS-Windows prototypes, structures, and constants
			      C .NOLIST
			      C .LIST
			      C 
			      C INCLUDE VirtualKeys.inc
			      C ; VirtualKeys.inc
			      C .NOLIST
			      C .LIST
			      C 
			      C 
			      C .NOLIST
			      C .LIST
			      C 
				
				; =================================================================================
				; 視窗控制相關 API (Windows API)
				; =================================================================================
				INCLUDELIB user32.lib
				INCLUDELIB kernel32.lib
				
 = 00000003			SW_MAXIMIZE = 3
				GetConsoleWindow PROTO
				ShowWindow PROTO, hWnd:DWORD, nCmdShow:DWORD
				; SetConsoleScreenBufferSize 已經包含在 Irvine32 或標準庫中，但為了保險起見我們使用 Invoke 呼叫
				
				; =================================================================================
				; 函式原型宣告 (Function Prototypes)
				; =================================================================================
				initConsoleWindow PROTO     ; 初始化視窗大小並最大化
				outerBox PROTO              ; 繪製遊戲外框
				initBlock PROTO             ; 初始化游標位置
				drawMovingDashedCursor PROTO ; 繪製動態虛線游標
				hasMapComponentAtCursor PROTO ; 檢查游標位置是否有地圖元件
				toggleMenuState PROTO       ; 切換選單/遊戲模式
				handleNormalInput PROTO     ; 處理一般模式輸入
				handleSideMenuInput PROTO   ; 處理側邊選單輸入
				drawSideMenu PROTO          ; 繪製側邊選單
				drawSideMenuCursor PROTO    ; 繪製選單游標
				clearSideMenuCursor PROTO   ; 清除選單游標
				updateDashAnimation PROTO   ; 更新虛線動畫
				moveBlock PROTO             ; 遊戲主迴圈
				addTowerWithType PROTO      ; 新增指定類型的塔
				checkTowerAtCurrentPosition PROTO ; 檢查當前位置是否有塔
				deleteTower PROTO           ; 刪除塔
				isTowerAtPositionSimple PROTO ; 檢查指定索引的塔是否在當前位置
				removeTowerAtIndexSimple PROTO ; 移除指定索引的塔
				drawTower PROTO             ; 繪製單一個塔
				initMapSystem PROTO         ; 初始化地圖資料
				canPlaceTowerAtCurrentPos PROTO ; 檢查是否可建造塔
				drawMapComponents PROTO     ; 繪製所有地圖元件
				drawComponent PROTO         ; 繪製單一地圖元件
				calculateScreenPosition PROTO ; 計算螢幕座標
				drawATower PROTO            ; 繪製 Tower A (Cannon)
				drawBTower PROTO            ; 繪製 Tower B (Sniper)
				drawCTower PROTO            ; 繪製 Tower C (Ice Arrow)
				drawDTower PROTO            ; 繪製 Tower D (Mage)
				drawETower PROTO            ; 繪製 Tower E (Missile)
				drawAllTowers PROTO         ; 繪製所有已建造的塔
				restoreGraphicsAtPos PROTO  ; 重繪指定位置的圖案 (防閃爍)
				getTowerTypeAtPos PROTO     ; 取得指定位置的塔類型
				
				; =================================================================================
				; 常數定義 (Constants)
				; =================================================================================
 = start@0			main EQU start@0
				
				; 視窗大小設定 (這裡僅作為備用參考，實際會被最大化覆蓋)
 = 00000078			WINDOW_WIDTH        = 120
 = 00000028			WINDOW_HEIGHT       = 40
				
				; 介面尺寸 (地圖區)
 = 00000054			outerBoxWidth       = 84
 = 0000001A			outerBoxHeight      = 26
				
				; 遊戲方塊 (Cursor/Tower) 尺寸
 = 00000005			blockWidth          = 5
 = 00000003			blockHeight         = 3
				
				; 地圖系統常數
 = 00000010			MAP_WIDTH           = 16
 = 00000008			MAP_HEIGHT          = 8
				
				; 地圖元件類型 ID
 = 00000000			COMPONENT_EMPTY     = 0
 = 00000001			COMPONENT_OUTLET    = 1
 = 00000002			COMPONENT_EXIT      = 2
 = 00000003			COMPONENT_PATH_H    = 3
 = 00000004			COMPONENT_PATH_V    = 4
 = 00000005			COMPONENT_CORNER_1  = 5
 = 00000006			COMPONENT_CORNER_2  = 6
 = 00000007			COMPONENT_CORNER_3  = 7
 = 00000008			COMPONENT_CORNER_4  = 8
				
				; 側邊選單設定
 = 0000005A			SIDE_MENU_X         = 90     ; 選單起始 X 座標
 = 00000004			SIDE_MENU_Y         = 4      ; 選單起始 Y 座標
 = 00000005			SIDE_MENU_SPACING   = 5      ; 選單項目垂直間距
 = 00000005			TOWER_MENU_COUNT    EQU 5    ; 塔的種類數量
				
				; 動畫速度
 = 00000005			DASH_SPEED          EQU 5    ; 虛線閃爍速度
				
 00000000			.data
				; =================================================================================
				; 介面資料 (Interface Data)
				; =================================================================================
				; 視窗最大化所需變數
 00000000 00C8 0050		newBufferSize   COORD <200, 80>  ; 設定足夠大的緩衝區以支援最大化
 00000004 00000000		windowHandle    DWORD ?          ; 儲存視窗 Handle
				
 00000008 0000 0000 0077	windowRect      SMALL_RECT <0, 0, WINDOW_WIDTH-1, WINDOW_HEIGHT-1>
	   0027
 00000010 0078 0028		consoleSize     COORD <WINDOW_WIDTH, WINDOW_HEIGHT>
				
 00000014 DA			outerBoxTop     BYTE 0DAh, 82 DUP(0C4h), 0BFh
	   00000052 [
	    C4
	   ] BF
 00000068 B3			outerBoxBody    BYTE 0B3h, 82 DUP(' '), 0B3h
	   00000052 [
	    20
	   ] B3
 000000BC C0			outerBoxBottom  BYTE 0C0h, 82 DUP(0C4h), 0D9h
	   00000052 [
	    C4
	   ] D9
				
				; Console Handle
 00000110 00000000		outputHandle    DWORD 0
 00000114 00000000		inputHandle     DWORD 0     
 00000118 00000000		cellsWritten    DWORD ?
 0000011C 00000000		count           DWORD 0
 00000120 00000000		numEvents       DWORD 0     
				
				; 座標位置
 00000124 0005 0003		outerBoxPosInit COORD <5,3>     ; 遊戲框起始點
 00000128 0000 0000		outerBoxPos     COORD <?, ?>    ; 繪圖游標暫存
 0000012C 0007 0004		blockPosInit    COORD <7, 4>    ; 玩家游標起始點
 00000130 0000 0000		blockPos        COORD <?, ?>    ; 玩家目前位置
 00000134 0000 0000		prevBlockPos    COORD <?, ?>    ; 上一幀玩家位置 (用於消除殘影)
				
				; 側邊選單游標控制
 00000138 00000000		sideMenuCursorIndex DWORD 0     ; 目前選中的塔索引 (0-4)
 0000013C 0000 0000		sideMenuCursorPos   COORD <?, ?>
				
				; 建造狀態
 00000140 01			currentBuildType    BYTE 1      ; 當前選中要蓋的塔類型
				
				; 顏色屬性 (F0h = 白底黑字)
 00000141  00000054 [		outerAttributes WORD outerBoxWidth DUP(0F0h)
	    00F0
	   ]
 000001E9  00000005 [		blockAttributes WORD blockWidth DUP(0F0h)
	    00F0
	   ]
 000001F3  00000005 [		cursorAttr      WORD blockWidth DUP(0F0h)     
	    00F0
	   ]
 000001FD  0000003C [		emptyLine       BYTE 60 DUP(' ') ; 用於清除的空白字串
	    20
	   ]
				
				; 各塔顏色 (背景 F=白, 文字顏色不同)
 00000239  00000005 [		attrTowerA      WORD blockWidth DUP(0F0h) 
	    00F0
	   ]
 00000243  00000005 [		attrTowerB      WORD blockWidth DUP(0F0h) 
	    00F0
	   ]
 0000024D  00000005 [		attrTowerC      WORD blockWidth DUP(0F0h) 
	    00F0
	   ]
 00000257  00000005 [		attrTowerD      WORD blockWidth DUP(0F0h) 
	    00F0
	   ]
 00000261  00000005 [		attrTowerE      WORD blockWidth DUP(0F0h) 
	    00F0
	   ]
				
				; 塔的名稱字串 (補齊長度以便清除)
 0000026B 43 61 6E 6E 6F	strNameA        BYTE "Cannon", 0
	   6E 00
 00000272 53 6E 69 70 65	strNameB        BYTE "Sniper", 0
	   72 00
 00000279 20 49 63 65 20	strNameC        BYTE " Ice  ", 0  
	   20 00
 00000280 20 4D 61 67 65	strNameD        BYTE " Mage ", 0
	   20 00
 00000287 4D 69 73 73 69	strNameE        BYTE "Missile", 0 
	   6C 65 00
				
				; 側邊選單游標樣式
 0000028F  00000004 [		attrMenuCursor  WORD 4 DUP(0C0h) 
	    00C0
	   ]
 00000297 20 3C 3C 20		menuCursorStr   BYTE " << "
				
				; 顯示選單名稱的屬性 (白底黑字)
 0000029B  0000000A [		attrMenuName    WORD 10 DUP(0F0h)
	    00F0
	   ]
				
 000002AF  00000005 [		tempBuffer      BYTE blockWidth DUP(?)
	    00
	   ]
				
				; =================================================================================
				; 遊戲資料 (Game Data)
				; =================================================================================
 = 0000001E			towerMax        EQU 30 
 000002B4  0000001E [		towersPosX      WORD towerMax DUP(?)  ; 塔的 X 座標陣列
	    0000
	   ]
 000002F0  0000001E [		towersPosY      WORD towerMax DUP(?)  ; 塔的 Y 座標陣列
	    0000
	   ]
 0000032C  0000001E [		towersType      BYTE towerMax DUP(?)  ; 塔的類型陣列
	    00
	   ]
 0000034A 00000000		towerCount      DWORD 0               ; 目前塔的數量
				
				; 狀態控制
 0000034E 00000000		menuState           DWORD 0  ; 0 = 地圖模式, 1 = 側邊選單模式
 00000352 01 02 03 04 05	towerTypes          BYTE 1, 2, 3, 4, 5
				
				; 動畫變數 (虛線游標)
 00000357 00000000		dashTimer       DWORD 0       
 0000035B 00000000		dashAnimState   DWORD 0       
 0000035F 2D 20 2D 20 2D	dashStyle1      BYTE '-', ' ', '-', ' ', '-', ' ', ' ', '-', ' ', '-', ' ', '-'   
	   20 20 2D 20 2D
	   20 2D
 0000036B 20 2D 20 2D 20	dashStyle2      BYTE ' ', '-', ' ', '-', ' ', '|', '|', ' ', '-', ' ', '-', ' '   
	   7C 7C 20 2D 20
	   2D 20
				
				; 地圖資料
 00000377  00000080 [		mapData BYTE (MAP_WIDTH * MAP_HEIGHT) DUP(0)
	    00
	   ]
 000003F7 00 00 00 00 00	map1Data BYTE 0,0,0,0,0,0,0,0,0,0,0,0,0,0,0,0
	   00 00 00 00 00
	   00 00 00 00 00
	   00
 00000407  00 01 00 06 03	         BYTE 0,1,0,6,3,3,3,3,3,3,3,5,0,2,0,0
	   03 03 03 03 03
	   03 05 00 02 00
	   00
 00000417  00 04 00 04 00	         BYTE 0,4,0,4,0,0,0,0,0,0,0,4,0,4,0,0
	   00 00 00 00 00
	   00 04 00 04 00
	   00
 00000427  00 04 00 04 00	         BYTE 0,4,0,4,0,0,6,3,3,3,3,8,0,4,0,0
	   00 06 03 03 03
	   03 08 00 04 00
	   00
 00000437  00 04 00 04 00	         BYTE 0,4,0,4,0,0,4,0,0,0,0,0,0,4,0,0
	   00 04 00 00 00
	   00 00 00 04 00
	   00
 00000447  00 04 00 04 00	         BYTE 0,4,0,4,0,0,4,0,0,0,0,0,0,4,0,0
	   00 04 00 00 00
	   00 00 00 04 00
	   00
 00000457  00 07 03 08 00	         BYTE 0,7,3,8,0,0,7,3,3,3,3,3,3,8,0,0
	   00 07 03 03 03
	   03 03 03 08 00
	   00
 00000467  00 00 00 00 00	         BYTE 0,0,0,0,0,0,0,0,0,0,0,0,0,0,0,0
	   00 00 00 00 00
	   00 00 00 00 00
	   00
				
				; 元件 ASCII 圖形
 00000477			componentChars LABEL BYTE
 00000477  0000000F [		component0 BYTE 15 DUP(20h)
	    20
	   ]
 00000486  00000005 [		component1 BYTE 5 DUP(20h), 20h, 3 DUP(0DCh), 20h, 0DEh, 0DBh, 0DFh, 0DBh, 0DDh
	    20
	   ] 20
	   00000003 [
	    DC
	   ] 20 DE DB DF
	   DB DD
 00000495  00000005 [		component2 BYTE 5 DUP(20h), 20h, 3 DUP(0DCh), 20h, 0DEh, 3 DUP(0B0h), 0DDh
	    20
	   ] 20
	   00000003 [
	    DC
	   ] 20 DE
	   00000003 [
	    B0
	   ] DD
 000004A4  00000005 [		component3 BYTE 5 DUP(20h), 5 DUP(0B0h), 5 DUP(20h)
	    20
	   ]
	   00000005 [
	    B0
	   ]
	   00000005 [
	    20
	   ]
 000004B3 20			component4 BYTE 20h, 3 DUP(0B0h), 20h, 20h, 3 DUP(0B0h), 20h, 20h, 3 DUP(0B0h), 20h
	   00000003 [
	    B0
	   ] 20 20
	   00000003 [
	    B0
	   ] 20 20
	   00000003 [
	    B0
	   ] 20
 000004C2  00000005 [		component5 BYTE 5 DUP(20h), 4 DUP(0B0h), 20h, 20h, 3 DUP(0B0h), 20h
	    20
	   ]
	   00000004 [
	    B0
	   ] 20 20
	   00000003 [
	    B0
	   ] 20
 000004D1  00000005 [		component6 BYTE 5 DUP(20h), 20h, 4 DUP(0B0h), 20h, 3 DUP(0B0h), 20h
	    20
	   ] 20
	   00000004 [
	    B0
	   ] 20
	   00000003 [
	    B0
	   ] 20
 000004E0 20			component7 BYTE 20h, 3 DUP(0B0h), 20h, 20h, 4 DUP(0B0h), 5 DUP(20h)
	   00000003 [
	    B0
	   ] 20 20
	   00000004 [
	    B0
	   ]
	   00000005 [
	    20
	   ]
 000004EF 20			component8 BYTE 20h, 3 DUP(0B0h), 20h, 4 DUP(0B0h), 20h, 5 DUP(20h)
	   00000003 [
	    B0
	   ] 20
	   00000004 [
	    B0
	   ] 20
	   00000005 [
	    20
	   ]
				
 00000000			.code
				; =================================================================================
				; 程式進入點 (Entry Point)
				; =================================================================================
 00000000			main PROC
				    ; 1. 取得 Console Handle
				    INVOKE GetStdHandle, STD_OUTPUT_HANDLE
 00000007  A3 00000110 R	    mov outputHandle, eax
				    INVOKE GetStdHandle, STD_INPUT_HANDLE   
 00000013  A3 00000114 R	    mov inputHandle, eax
				    
				    ; 2. 初始化視窗並最大化
 00000018  E8 00000044		    call initConsoleWindow
				
    ; 3. 設定全域背景顏色為白底黑字 (F0h) 並清屏
				    INVOKE SetConsoleTextAttribute, outputHandle, 0F0h 
 0000002D  E8 00000000 E	    call Clrscr 
				
				    ; 4. 初始化遊戲物件與地圖
 00000032  E8 00000523		    call outerBox       ; 畫邊框
 00000037  E8 00000C1D		    call initMapSystem  ; 載入地圖資料
 0000003C  E8 000005FB		    call initBlock      ; 初始化游標位置
				    
				    ; 5. 初次繪製靜態物件
 00000041  E8 00000C94		    call drawMapComponents
 00000046  E8 0000130D		    call drawAllTowers
 0000004B  E8 00000044		    call drawSideMenu
				
				    ; 6. 進入遊戲主迴圈
 00000050  E8 000003B1		    call moveBlock      
				    
 00000055  E8 00000000 E	    call Clrscr
				    exit
 00000061			main ENDP
				
				; =================================================================================
				; 設定視窗大小並最大化 (Window Initialization)
				; =================================================================================
 00000061			initConsoleWindow PROC
				    ; 強制擴大螢幕緩衝區，確保最大化時不會被切掉
				    INVOKE SetConsoleScreenBufferSize, outputHandle, newBufferSize
				
				    ; 取得視窗 Handle 並執行最大化指令
				    INVOKE GetConsoleWindow
 00000077  A3 00000004 R	    mov windowHandle, eax
				    INVOKE ShowWindow, windowHandle, SW_MAXIMIZE
				    
				    ; 稍微延遲讓視窗展開，避免繪圖錯位
 00000089  B8 00000032		    mov eax, 50
 0000008E  E8 00000000 E	    call Delay
				    
 00000093  C3			    ret
 00000094			initConsoleWindow ENDP
				
				; =================================================================================
				; 繪製常駐側邊選單 (Draw Side Menu)
				; =================================================================================
 00000094			drawSideMenu PROC USES eax ecx esi
 00000097  FF 35 00000128 R	    push DWORD PTR outerBoxPos
				    
 0000009D  B9 00000000		    mov ecx, 0
 000000A2			DRAW_MENU_LOOP:
 000000A2  83 F9 05		    cmp ecx, TOWER_MENU_COUNT
 000000A5  7D 58		    jge DRAW_MENU_FINISH
				    
				    ; 計算每個選單項目的位置: Y = START_Y + (i * SPACING)
 000000A7  8B C1		    mov eax, ecx
 000000A9  6B C0 05		    imul eax, SIDE_MENU_SPACING
 000000AC  83 C0 04		    add eax, SIDE_MENU_Y
 000000AF  66| A3		    mov outerBoxPos.Y, ax
	   0000012A R
 000000B5  66| C7 05		    mov outerBoxPos.X, SIDE_MENU_X
	   00000128 R
	   005A
				    
 000000BE  51			    push ecx
				    
				    ; 根據索引繪製對應的塔圖示
 000000BF  83 F9 00		    cmp ecx, 0
 000000C2  74 16		    je D_A
 000000C4  83 F9 01		    cmp ecx, 1
 000000C7  74 18		    je D_B
 000000C9  83 F9 02		    cmp ecx, 2
 000000CC  74 1A		    je D_C
 000000CE  83 F9 03		    cmp ecx, 3
 000000D1  74 1C		    je D_D
 000000D3  83 F9 04		    cmp ecx, 4
 000000D6  74 1E		    je D_E
 000000D8  EB 21		    jmp D_NEXT
				    
 000000DA			D_A: 
				    ; 繪製 Tower A (Cannon)
				    ; 不再預先印出名字，改由游標移動時動態顯示
 000000DA  E8 00000CD4		    call drawATower
 000000DF  EB 1A		    jmp D_NEXT
				
 000000E1			D_B: 
 000000E1  E8 00000DEE		    call drawBTower
 000000E6  EB 13		    jmp D_NEXT
				
 000000E8			D_C: 
 000000E8  E8 00000F08		    call drawCTower
 000000ED  EB 0C		    jmp D_NEXT
				
 000000EF			D_D: 
 000000EF  E8 00001022		    call drawDTower
 000000F4  EB 05		    jmp D_NEXT
				
 000000F6			D_E: 
 000000F6  E8 0000113C		    call drawETower
				
 000000FB			D_NEXT:
 000000FB  59			    pop ecx
 000000FC  41			    inc ecx
 000000FD  EB A3		    jmp DRAW_MENU_LOOP
				
 000000FF			DRAW_MENU_FINISH:
 000000FF  8F 05 00000128 R	    pop DWORD PTR outerBoxPos
				    ret
 00000109			drawSideMenu ENDP
				
				; =================================================================================
				; 繪製側邊選單游標 + 顯示對應塔名稱 (Draw Menu Cursor & Name)
				; =================================================================================
 00000109			drawSideMenuCursor PROC USES eax
 0000010A  A1 00000138 R	    mov eax, sideMenuCursorIndex
 0000010F  6B C0 05		    imul eax, SIDE_MENU_SPACING
 00000112  83 C0 04		    add eax, SIDE_MENU_Y
 00000115  83 C0 02		    add eax, 2                  ; 向下調整，對齊塔的中間
				    
 00000118  66| A3		    mov sideMenuCursorPos.Y, ax
	   0000013E R
 0000011E  66| B8 005A		    mov ax, SIDE_MENU_X
 00000122  66| 83 C0 06		    add ax, 6                   ; 畫在塔的右邊
 00000126  66| A3		    mov sideMenuCursorPos.X, ax
	   0000013C R
				    
				    ; 1. 畫游標 " << "
				    INVOKE WriteConsoleOutputAttribute, outputHandle, ADDR attrMenuCursor, 4, sideMenuCursorPos, ADDR cellsWritten
				    INVOKE WriteConsoleOutputCharacter, outputHandle, ADDR menuCursorStr, 4, sideMenuCursorPos, ADDR count
				    
				    ; 2. 游標往右移，準備畫名字
 00000166  66| 83 05		    add sideMenuCursorPos.X, 5
	   0000013C R 05
				    
				    ; 3. 根據 sideMenuCursorIndex 決定畫哪個名字
 0000016E  A1 00000138 R	    mov eax, sideMenuCursorIndex
 00000173  83 F8 00		    cmp eax, 0
 00000176  74 25		    je SHOW_NAME_A
 00000178  83 F8 01		    cmp eax, 1
 0000017B  74 5F		    je SHOW_NAME_B
 0000017D  83 F8 02		    cmp eax, 2
 00000180  0F 84 00000095	    je SHOW_NAME_C
 00000186  83 F8 03		    cmp eax, 3
 00000189  0F 84 000000C8	    je SHOW_NAME_D
 0000018F  83 F8 04		    cmp eax, 4
 00000192  0F 84 000000FB	    je SHOW_NAME_E
 00000198  E9 00000130		    jmp SKIP_NAME
				
 0000019D			SHOW_NAME_A:
				    INVOKE WriteConsoleOutputAttribute, outputHandle, ADDR attrMenuName, 7, sideMenuCursorPos, ADDR cellsWritten
				    INVOKE WriteConsoleOutputCharacter, outputHandle, ADDR strNameA, 7, sideMenuCursorPos, ADDR count
 000001D7  E9 000000F1		    jmp SKIP_NAME
 000001DC			SHOW_NAME_B:
				    INVOKE WriteConsoleOutputAttribute, outputHandle, ADDR attrMenuName, 7, sideMenuCursorPos, ADDR cellsWritten
				    INVOKE WriteConsoleOutputCharacter, outputHandle, ADDR strNameB, 7, sideMenuCursorPos, ADDR count
 00000216  E9 000000B2		    jmp SKIP_NAME
 0000021B			SHOW_NAME_C:
				    INVOKE WriteConsoleOutputAttribute, outputHandle, ADDR attrMenuName, 7, sideMenuCursorPos, ADDR cellsWritten
				    INVOKE WriteConsoleOutputCharacter, outputHandle, ADDR strNameC, 7, sideMenuCursorPos, ADDR count
 00000255  EB 76		    jmp SKIP_NAME
 00000257			SHOW_NAME_D:
				    INVOKE WriteConsoleOutputAttribute, outputHandle, ADDR attrMenuName, 7, sideMenuCursorPos, ADDR cellsWritten
				    INVOKE WriteConsoleOutputCharacter, outputHandle, ADDR strNameD, 7, sideMenuCursorPos, ADDR count
 00000291  EB 3A		    jmp SKIP_NAME
 00000293			SHOW_NAME_E:
				    INVOKE WriteConsoleOutputAttribute, outputHandle, ADDR attrMenuName, 7, sideMenuCursorPos, ADDR cellsWritten
				    INVOKE WriteConsoleOutputCharacter, outputHandle, ADDR strNameE, 7, sideMenuCursorPos, ADDR count
				
 000002CD			SKIP_NAME:
				    ret
 000002CF			drawSideMenuCursor ENDP
				
				; =================================================================================
				; 清除側邊選單游標 + 清除名稱 (Clear Menu Cursor & Name)
				; =================================================================================
 000002CF			clearSideMenuCursor PROC USES eax
 000002D0  A1 00000138 R	    mov eax, sideMenuCursorIndex
 000002D5  6B C0 05		    imul eax, SIDE_MENU_SPACING
 000002D8  83 C0 04		    add eax, SIDE_MENU_Y
 000002DB  83 C0 02		    add eax, 2                  ; 對齊塔身中間
				    
 000002DE  66| A3		    mov sideMenuCursorPos.Y, ax
	   0000013E R
 000002E4  66| B8 005A		    mov ax, SIDE_MENU_X
 000002E8  66| 83 C0 06		    add ax, 6
 000002EC  66| A3		    mov sideMenuCursorPos.X, ax
	   0000013C R
				    
				    ; 1. 清除游標 " << "
				    INVOKE WriteConsoleOutputAttribute, outputHandle, ADDR outerAttributes, 4, sideMenuCursorPos, ADDR cellsWritten
				    INVOKE WriteConsoleOutputCharacter, outputHandle, ADDR emptyLine, 4, sideMenuCursorPos, ADDR count
				    
				    ; 2. 游標往右移，準備清除名字
 0000032C  66| 83 05		    add sideMenuCursorPos.X, 5
	   0000013C R 05
				    
				    ; 3. 清除名字區域 (長度設為 10 確保清乾淨)
				    INVOKE WriteConsoleOutputAttribute, outputHandle, ADDR outerAttributes, 10, sideMenuCursorPos, ADDR cellsWritten
				    INVOKE WriteConsoleOutputCharacter, outputHandle, ADDR emptyLine, 10, sideMenuCursorPos, ADDR count
				    
				    ret
 00000370			clearSideMenuCursor ENDP
				
				; =================================================================================
				; 切換 遊戲/選單 模式 (Toggle Menu State)
				; =================================================================================
 00000370			toggleMenuState PROC
 00000370  A1 0000034E R	    mov eax, menuState
 00000375  83 F0 01		    xor eax, 1             ; 切換 0/1
 00000378  A3 0000034E R	    mov menuState, eax
				    
 0000037D  83 F8 01		    cmp eax, 1
 00000380  74 07		    je SWITCH_TO_MENU
				    
				    ; 切換回地圖模式：清除選單游標
 00000382  E8 FFFFFF48		    call clearSideMenuCursor
 00000387  EB 05		    jmp TOGGLE_DONE
				    
 00000389			SWITCH_TO_MENU:
				    ; 切換到選單模式：畫出選單游標
 00000389  E8 FFFFFD7B		    call drawSideMenuCursor
				    
 0000038E			TOGGLE_DONE:
 0000038E  C3			    ret
 0000038F			toggleMenuState ENDP
				
				; =================================================================================
				; 處理側邊選單輸入 (Handle Side Menu Input)
				; =================================================================================
 0000038F			handleSideMenuInput PROC USES eax
 00000390  66| 3D 4800		    cmp ax, 4800h ; UP Arrow
 00000394  74 0E		    je MENU_UP
 00000396  66| 3D 5000		    cmp ax, 5000h ; DOWN Arrow
 0000039A  74 28		    je MENU_DOWN
				    
 0000039C  66| 3D 1C0D		    cmp ax, 1C0Dh ; ENTER Key
 000003A0  74 49		    je MENU_SELECT
				    
 000003A2  EB 60		    jmp MENU_INPUT_DONE
				
 000003A4			MENU_UP:
 000003A4  E8 FFFFFF26		    call clearSideMenuCursor      ; 清除舊位置
 000003A9  FF 0D 00000138 R	    dec sideMenuCursorIndex
 000003AF  83 3D 00000138 R	    cmp sideMenuCursorIndex, 0
	   00
 000003B6  7D 2C		    jge UPDATE_CURSOR
 000003B8  C7 05 00000138 R	    mov sideMenuCursorIndex, 4    ; 循環到底部
	   00000004
 000003C2  EB 20		    jmp UPDATE_CURSOR
				
 000003C4			MENU_DOWN:
 000003C4  E8 FFFFFF06		    call clearSideMenuCursor      ; 清除舊位置
 000003C9  FF 05 00000138 R	    inc sideMenuCursorIndex
 000003CF  83 3D 00000138 R	    cmp sideMenuCursorIndex, 4
	   04
 000003D6  7E 0C		    jle UPDATE_CURSOR
 000003D8  C7 05 00000138 R	    mov sideMenuCursorIndex, 0    ; 循環到頂部
	   00000000
 000003E2  EB 00		    jmp UPDATE_CURSOR
				
 000003E4			UPDATE_CURSOR:
 000003E4  E8 FFFFFD20		    call drawSideMenuCursor       ; 畫新位置
 000003E9  EB 19		    jmp MENU_INPUT_DONE
				
 000003EB			MENU_SELECT:
				    ; 確認選擇：直接建造該類型的塔
 000003EB  A1 00000138 R	    mov eax, sideMenuCursorIndex
 000003F0  40			    inc eax                       ; Index(0-4) -> Type(1-5)
 000003F1  8A D8		    mov bl, al                    ; BL 傳遞給 addTowerWithType
				    
 000003F3  E8 00000610		    call addTowerWithType         ; 執行建造
 000003F8  E8 0000048D		    call restoreGraphicsAtPos     ; 立即重繪該位置以顯示結果
 000003FD  E8 FFFFFF6E		    call toggleMenuState          ; 關閉選單，切換回地圖移動模式
 00000402  EB 00		    jmp MENU_INPUT_DONE
				
 00000404			MENU_INPUT_DONE:
				    ret
 00000406			handleSideMenuInput ENDP
				
				; =================================================================================
				; 遊戲主迴圈 (Main Game Loop)
				; =================================================================================
 00000406			moveBlock PROC
 00000406			START_MOVE:
 00000406  E8 0000045E		    call updateDashAnimation    ; 更新游標閃爍動畫
				
 0000040B  83 3D 0000034E R	    cmp menuState, 1
	   01
 00000412  74 22		    je SKIP_MAP_CURSOR_UPDATE   ; 選單模式下，暫停地圖游標更新
				    
				    ; === 地圖模式繪圖 ===
 00000414  E8 00000471		    call restoreGraphicsAtPos   ; 清除上一幀的游標殘影
 00000419  E8 0000023F		    call drawMovingDashedCursor ; 畫出新的游標
				    ; 同步位置資訊
 0000041E  66| A1		    mov ax, blockPos.X
	   00000130 R
 00000424  66| A3		    mov prevBlockPos.X, ax
	   00000134 R
 0000042A  66| A1		    mov ax, blockPos.Y
	   00000132 R
 00000430  66| A3		    mov prevBlockPos.Y, ax
	   00000136 R
				    
 00000436			SKIP_MAP_CURSOR_UPDATE:
				
 00000436  B8 0000001E		    mov eax, 30                 ; 延遲 30ms
 0000043B  E8 00000000 E	    call Delay
				    
				    ; 檢查輸入緩衝區 (非阻塞)
				    INVOKE GetNumberOfConsoleInputEvents, inputHandle, ADDR numEvents
 00000450  83 3D 00000120 R	    cmp numEvents, 0
	   00
 00000457  74 29		    je NO_KEY_PRESSED   
				
 00000459  E8 00000000 E	    call ReadKey        
 0000045E  74 22		    jz NO_KEY_PRESSED
				    
				    .IF ax == 2166h ; 'f' 鍵切換選單
 00000466  E8 FFFFFF05		        call toggleMenuState
 0000046B  EB 15		        jmp NO_KEY_PRESSED
				    .ENDIF
				
				    ; 根據模式分發輸入處理
 0000046D  83 3D 0000034E R	    cmp menuState, 1
	   01
 00000474  74 07		    je CALL_MENU_INPUT
				    
 00000476  E8 00000015		    call handleNormalInput      ; 處理移動/刪除
				    
				    ; [注意] 移除了地圖模式下的 Enter 建造功能，強制透過選單建造
				    
 0000047B  EB 05		    jmp NO_KEY_PRESSED
				
 0000047D			CALL_MENU_INPUT:
 0000047D  E8 FFFFFF0D		    call handleSideMenuInput    ; 處理選單操作
				
 00000482			NO_KEY_PRESSED:
				    .IF ax == 011Bh ; ESC 鍵離開遊戲
 00000488  EB 05		        jmp EXIT_MOVE
				    .ENDIF
 0000048A  E9 FFFFFF77		    jmp START_MOVE
 0000048F			EXIT_MOVE:
 0000048F  C3			    ret
 00000490			moveBlock ENDP
				
				; =================================================================================
				; 處理一般模式輸入 (移動 + 刪除)
				; =================================================================================
 00000490			handleNormalInput PROC USES eax ebx
 00000492  66| 3D 4800		    cmp ax, 4800h ; UP
 00000496  74 21		    je HANDLE_UP
 00000498  66| 3D 5000		    cmp ax, 5000h ; DOWN
 0000049C  74 41		    je HANDLE_DOWN
 0000049E  66| 3D 4B00		    cmp ax, 4B00h ; LEFT
 000004A2  74 61		    je HANDLE_LEFT
 000004A4  66| 3D 4D00		    cmp ax, 4D00h ; RIGHT
 000004A8  74 7D		    je HANDLE_RIGHT
 000004AA  66| 3D 2D78		    cmp ax, 2d78h ; 'x' -> Delete Tower
 000004AE  0F 84 00000099	    je HANDLE_X
 000004B4  E9 0000009E		    jmp END_NORMAL_INPUT
				
 000004B9			HANDLE_UP:
 000004B9  66| 83 2D		    sub blockPos.Y, blockHeight
	   00000132 R 03
 000004C1  66| 8B 1D		    mov bx, blockPosInit.Y
	   0000012E R
 000004C8  66| 39 1D		    cmp blockPos.Y, bx
	   00000132 R
 000004CF  0F 8D 00000082	    jge END_NORMAL_INPUT
 000004D5  66| 83 05		    add blockPos.Y, blockHeight 
	   00000132 R 03
 000004DD  EB 78		    jmp END_NORMAL_INPUT
				
 000004DF			HANDLE_DOWN:
 000004DF  66| 83 05		    add blockPos.Y, blockHeight
	   00000132 R 03
 000004E7  66| BB 0015		    mov bx, (blockHeight * 7)
 000004EB  66| 03 1D		    add bx, blockPosInit.Y
	   0000012E R
 000004F2  66| 39 1D		    cmp blockPos.Y, bx
	   00000132 R
 000004F9  76 5C		    jbe END_NORMAL_INPUT
 000004FB  66| 83 2D		    sub blockPos.Y, blockHeight
	   00000132 R 03
 00000503  EB 52		    jmp END_NORMAL_INPUT
				
 00000505			HANDLE_LEFT:
 00000505  66| 83 2D		    sub blockPos.X, blockWidth
	   00000130 R 05
 0000050D  66| 8B 1D		    mov bx, blockPosInit.X
	   0000012C R
 00000514  66| 39 1D		    cmp blockPos.X, bx
	   00000130 R
 0000051B  73 3A		    jae END_NORMAL_INPUT
 0000051D  66| 83 05		    add blockPos.X, blockWidth
	   00000130 R 05
 00000525  EB 30		    jmp END_NORMAL_INPUT
				
 00000527			HANDLE_RIGHT:
 00000527  66| 83 05		    add blockPos.X, blockWidth
	   00000130 R 05
 0000052F  66| BB 004B		    mov bx, (blockWidth * 15)
 00000533  66| 03 1D		    add bx, blockPosInit.X
	   0000012C R
 0000053A  66| 39 1D		    cmp blockPos.X, bx
	   00000130 R
 00000541  76 14		    jbe END_NORMAL_INPUT
 00000543  66| 83 2D		    sub blockPos.X, blockWidth
	   00000130 R 05
 0000054B  EB 0A		    jmp END_NORMAL_INPUT
				    
 0000054D			HANDLE_X:
 0000054D  E8 0000056B		    call deleteTower 
 00000552  E8 00000333		    call restoreGraphicsAtPos
				    
 00000557			END_NORMAL_INPUT:
				    ret
 0000055A			handleNormalInput ENDP
				
				; =================================================================================
				; 繪圖函式 (使用 F0h 白底屬性)
				; =================================================================================
				
				; 繪製遊戲外框
 0000055A			outerBox PROC USES eax ecx
 0000055C  66| A1		    mov ax, outerBoxPosInit.X
	   00000124 R
 00000562  66| A3		    mov outerBoxPos.X, ax
	   00000128 R
 00000568  66| A1		    mov ax, outerBoxPosInit.Y
	   00000126 R
 0000056E  66| A3		    mov outerBoxPos.Y, ax
	   0000012A R
				    INVOKE WriteConsoleOutputAttribute, outputHandle, ADDR outerAttributes, outerBoxWidth, outerBoxPos, ADDR cellsWritten
				    INVOKE WriteConsoleOutputCharacter, outputHandle, ADDR outerBoxTop, outerBoxWidth, outerBoxPos, ADDR count
 000005AE  66| FF 05		    inc outerBoxPos.Y
	   0000012A R
 000005B5  B9 00000018		    mov ecx, outerBoxHeight-2
 000005BA  51			L1: push ecx
				    INVOKE WriteConsoleOutputAttribute, outputHandle, ADDR outerAttributes, outerBoxWidth, outerBoxPos, ADDR cellsWritten
				    INVOKE WriteConsoleOutputCharacter, outputHandle, ADDR outerBoxBody, outerBoxWidth, outerBoxPos, ADDR count
 000005F5  66| FF 05		    inc outerBoxPos.Y
	   0000012A R
 000005FC  59			    pop ecx
 000005FD  E2 BB		    loop L1
				    INVOKE WriteConsoleOutputAttribute, outputHandle, ADDR outerAttributes, outerBoxWidth, outerBoxPos, ADDR cellsWritten
				    INVOKE WriteConsoleOutputCharacter, outputHandle, ADDR outerBoxBottom, outerBoxWidth, outerBoxPos, ADDR count
				    ret
 0000063C			outerBox ENDP
				
				; 初始化游標位置
 0000063C			initBlock PROC USES eax
 0000063D  66| A1		    mov ax, blockPosInit.X
	   0000012C R
 00000643  66| A3		    mov blockPos.X, ax
	   00000130 R
 00000649  66| A3		    mov blockPos.Y, ax
	   00000132 R
 0000064F  66| A3		    mov prevBlockPos.X, ax 
	   00000134 R
 00000655  66| A3		    mov prevBlockPos.Y, ax
	   00000136 R
				    ret
 0000065D			initBlock ENDP
				
				; 繪製動態虛線游標 (根據 Dash Anim State 切換樣式)
 0000065D			drawMovingDashedCursor PROC USES eax esi edi
 00000660  FF 35 00000128 R	    push DWORD PTR outerBoxPos
 00000666  66| A1		    mov ax, blockPos.X
	   00000130 R
 0000066C  66| 8B 15		    mov dx, blockPos.Y
	   00000132 R
 00000673  66| A3		    mov outerBoxPos.X, ax
	   00000128 R
 00000679  66| 89 15		    mov outerBoxPos.Y, dx
	   0000012A R
 00000680  BE 0000035F R	    mov esi, OFFSET dashStyle1
 00000685  83 3D 0000035B R	    cmp dashAnimState, 1
	   01
 0000068C  75 05		    jne USE_STYLE
 0000068E  BE 0000036B R	    mov esi, OFFSET dashStyle2
 00000693			USE_STYLE:
				    ; 上邊框
 00000693  8A 06		    mov al, [esi+0] 
 00000695  A2 000002AF R	    mov tempBuffer, al
 0000069A  8A 46 01		    mov al, [esi+1] 
 0000069D  A2 000002B0 R	    mov tempBuffer+1, al
 000006A2  8A 46 02		    mov al, [esi+2] 
 000006A5  A2 000002B1 R	    mov tempBuffer+2, al
 000006AA  8A 46 03		    mov al, [esi+3] 
 000006AD  A2 000002B2 R	    mov tempBuffer+3, al
 000006B2  8A 46 04		    mov al, [esi+4] 
 000006B5  A2 000002B3 R	    mov tempBuffer+4, al
				    INVOKE WriteConsoleOutputAttribute, outputHandle, ADDR cursorAttr, blockWidth, outerBoxPos, ADDR cellsWritten
				    INVOKE WriteConsoleOutputCharacter, outputHandle, ADDR tempBuffer, blockWidth, outerBoxPos, ADDR count
 000006F4  66| FF 05		    inc outerBoxPos.Y
	   0000012A R
				    ; 中間左右邊框
 000006FB  8A 46 05		    mov al, [esi+5]     
 000006FE  A2 000002AF R	    mov tempBuffer, al
				    INVOKE WriteConsoleOutputAttribute, outputHandle, ADDR cursorAttr, 1, outerBoxPos, ADDR cellsWritten
				    INVOKE WriteConsoleOutputCharacter, outputHandle, ADDR tempBuffer, 1, outerBoxPos, ADDR count
 0000073D  66| 83 05		    add outerBoxPos.X, 4
	   00000128 R 04
 00000745  8A 46 06		    mov al, [esi+6]     
 00000748  A2 000002AF R	    mov tempBuffer, al
				    INVOKE WriteConsoleOutputAttribute, outputHandle, ADDR cursorAttr, 1, outerBoxPos, ADDR cellsWritten
				    INVOKE WriteConsoleOutputCharacter, outputHandle, ADDR tempBuffer, 1, outerBoxPos, ADDR count
 00000787  66| 83 2D		    sub outerBoxPos.X, 4
	   00000128 R 04
 0000078F  66| FF 05		    inc outerBoxPos.Y
	   0000012A R
				    ; 下邊框
 00000796  8A 46 07		    mov al, [esi+7]
 00000799  A2 000002AF R	    mov tempBuffer, al
 0000079E  8A 46 08		    mov al, [esi+8]
 000007A1  A2 000002B0 R	    mov tempBuffer+1, al
 000007A6  8A 46 09		    mov al, [esi+9]
 000007A9  A2 000002B1 R	    mov tempBuffer+2, al
 000007AE  8A 46 0A		    mov al, [esi+10]
 000007B1  A2 000002B2 R	    mov tempBuffer+3, al
 000007B6  8A 46 0B		    mov al, [esi+11]
 000007B9  A2 000002B3 R	    mov tempBuffer+4, al
				    INVOKE WriteConsoleOutputAttribute, outputHandle, ADDR cursorAttr, blockWidth, outerBoxPos, ADDR cellsWritten
				    INVOKE WriteConsoleOutputCharacter, outputHandle, ADDR tempBuffer, blockWidth, outerBoxPos, ADDR count
 000007F8  8F 05 00000128 R	    pop DWORD PTR outerBoxPos
				    ret
 00000802			drawMovingDashedCursor ENDP
				
				; 檢查游標位置是否有地圖元件
 00000802			hasMapComponentAtCursor PROC USES ebx ecx esi
 00000805  0F B7 05		    movzx eax, blockPos.X
	   00000130 R
 0000080C  83 E8 07		    sub eax, 7
 0000080F  BB 00000005		    mov ebx, blockWidth
 00000814  33 D2		    xor edx, edx
 00000816  F7 F3		    div ebx
 00000818  8B D8		    mov ebx, eax    
 0000081A  0F B7 05		    movzx eax, blockPos.Y
	   00000132 R
 00000821  83 E8 04		    sub eax, 4
 00000824  B9 00000003		    mov ecx, blockHeight
 00000829  33 D2		    xor edx, edx
 0000082B  F7 F1		    div ecx         
 0000082D  83 FB 10		    cmp ebx, MAP_WIDTH
 00000830  7D 2E		    jge NO_MAP_COMPONENT
 00000832  83 F8 08		    cmp eax, MAP_HEIGHT
 00000835  7D 29		    jge NO_MAP_COMPONENT
 00000837  83 FB 00		    cmp ebx, 0
 0000083A  7C 24		    jl NO_MAP_COMPONENT
 0000083C  83 F8 00		    cmp eax, 0
 0000083F  7C 1F		    jl NO_MAP_COMPONENT
 00000841  B9 00000010		    mov ecx, MAP_WIDTH
 00000846  F7 E1		    mul ecx
 00000848  03 C3		    add eax, ebx
 0000084A  BE 00000377 R	    mov esi, OFFSET mapData
 0000084F  03 F0		    add esi, eax
 00000851  8A 06		    mov al, BYTE PTR [esi]
 00000853  3C 00		    cmp al, COMPONENT_EMPTY
 00000855  74 09		    je NO_MAP_COMPONENT
 00000857  B8 00000001		    mov eax, 1
				    ret
 00000860			NO_MAP_COMPONENT:
 00000860  B8 00000000		    mov eax, 0
				    ret
 00000869			hasMapComponentAtCursor ENDP
				
				; 更新虛線閃爍動畫狀態
 00000869			updateDashAnimation PROC
 00000869  FF 05 00000357 R	    inc dashTimer
 0000086F  83 3D 00000357 R	    cmp dashTimer, DASH_SPEED
	   05
 00000876  7C 11		    jl NO_ANIM_CHANGE
 00000878  C7 05 00000357 R	    mov dashTimer, 0
	   00000000
 00000882  83 35 0000035B R	    xor dashAnimState, 1  
	   01
 00000889			NO_ANIM_CHANGE:
 00000889  C3			    ret
 0000088A			updateDashAnimation ENDP
				
				; 重繪指定位置的圖案 (用於清除殘影)
 0000088A			restoreGraphicsAtPos PROC USES eax ebx ecx esi edi
 0000088F  FF 35 00000128 R	    push DWORD PTR outerBoxPos
 00000895  66| A1		    mov ax, prevBlockPos.X
	   00000134 R
 0000089B  66| A3		    mov outerBoxPos.X, ax
	   00000128 R
 000008A1  66| A1		    mov ax, prevBlockPos.Y
	   00000136 R
 000008A7  66| A3		    mov outerBoxPos.Y, ax
	   0000012A R
				    
				    ; 1. 檢查是否有塔，有則重繪塔
 000008AD  E8 000000FA		    call getTowerTypeAtPos
 000008B2  83 F8 00		    cmp eax, 0
 000008B5  74 4B		    je RESTORE_MAP
 000008B7  3C 01		    cmp al, 1
 000008B9  74 15		    je DRAW_A
 000008BB  3C 02		    cmp al, 2
 000008BD  74 1B		    je DRAW_B
 000008BF  3C 03		    cmp al, 3
 000008C1  74 21		    je DRAW_C
 000008C3  3C 04		    cmp al, 4
 000008C5  74 27		    je DRAW_D
 000008C7  3C 05		    cmp al, 5
 000008C9  74 2D		    je DRAW_E
 000008CB  E9 000000D0		    jmp RESTORE_DONE
 000008D0  E8 000004DE		DRAW_A: call drawATower
 000008D5  E9 000000C6		        jmp RESTORE_DONE
 000008DA  E8 000005F5		DRAW_B: call drawBTower
 000008DF  E9 000000BC		        jmp RESTORE_DONE
 000008E4  E8 0000070C		DRAW_C: call drawCTower
 000008E9  E9 000000B2		        jmp RESTORE_DONE
 000008EE  E8 00000823		DRAW_D: call drawDTower
 000008F3  E9 000000A8		        jmp RESTORE_DONE
 000008F8  E8 0000093A		DRAW_E: call drawETower
 000008FD  E9 0000009E		        jmp RESTORE_DONE
				        
 00000902			RESTORE_MAP:
				    ; 2. 無塔，重繪地圖元件
 00000902  0F B7 05		    movzx eax, prevBlockPos.X
	   00000134 R
 00000909  83 E8 07		    sub eax, 7
 0000090C  BB 00000005		    mov ebx, blockWidth
 00000911  33 D2		    xor edx, edx
 00000913  F7 F3		    div ebx
 00000915  8B D8		    mov ebx, eax    
 00000917  0F B7 05		    movzx eax, prevBlockPos.Y
	   00000136 R
 0000091E  83 E8 04		    sub eax, 4
 00000921  B9 00000003		    mov ecx, blockHeight
 00000926  33 D2		    xor edx, edx
 00000928  F7 F1		    div ecx         
 0000092A  83 FB 10		    cmp ebx, MAP_WIDTH
 0000092D  7D 71		    jge RESTORE_DONE
 0000092F  83 F8 08		    cmp eax, MAP_HEIGHT
 00000932  7D 6C		    jge RESTORE_DONE
 00000934  B9 00000010		    mov ecx, MAP_WIDTH
 00000939  F7 E1		    mul ecx
 0000093B  03 C3		    add eax, ebx
 0000093D  BE 00000377 R	    mov esi, OFFSET mapData
 00000942  03 F0		    add esi, eax
 00000944  8A 0E		    mov cl, BYTE PTR [esi] 
 00000946  0F B6 C1		    movzx eax, cl
 00000949  BA 0000000F		    mov edx, 15
 0000094E  F7 E2		    mul edx
 00000950  BE 00000477 R	    mov esi, OFFSET componentChars
 00000955  03 F0		    add esi, eax
 00000957  B9 00000003		    mov ecx, blockHeight
 0000095C			DRAW_RESTORE_LOOP:
 0000095C  51			    push ecx
				    INVOKE WriteConsoleOutputCharacter, outputHandle, esi, blockWidth, outerBoxPos, ADDR count
				    INVOKE WriteConsoleOutputAttribute, outputHandle, ADDR blockAttributes, blockWidth, outerBoxPos, ADDR cellsWritten
 00000993  83 C6 05		    add esi, blockWidth
 00000996  66| FF 05		    inc outerBoxPos.Y
	   0000012A R
 0000099D  59			    pop ecx
 0000099E  E2 BC		    loop DRAW_RESTORE_LOOP
 000009A0			RESTORE_DONE:
 000009A0  8F 05 00000128 R	    pop DWORD PTR outerBoxPos
				    ret
 000009AC			restoreGraphicsAtPos ENDP
				
				; 取得指定位置的塔類型
 000009AC			getTowerTypeAtPos PROC USES ebx ecx esi
 000009AF  B9 00000000		    mov ecx, 0
 000009B4			CHECK_LOOP:
 000009B4  3B 0D 0000034A R	    cmp ecx, towerCount
 000009BA  7D 43		    jge NOT_FOUND
 000009BC  BE 000002B4 R	    mov esi, OFFSET towersPosX
 000009C1  8B D9		    mov ebx, ecx
 000009C3  6B DB 02		    imul ebx, 2
 000009C6  03 F3		    add esi, ebx
 000009C8  66| 8B 1E		    mov bx, WORD PTR [esi]
 000009CB  66| 3B 1D		    cmp bx, prevBlockPos.X 
	   00000134 R
 000009D2  75 28		    jne NEXT
 000009D4  BE 000002F0 R	    mov esi, OFFSET towersPosY
 000009D9  8B D9		    mov ebx, ecx
 000009DB  6B DB 02		    imul ebx, 2
 000009DE  03 F3		    add esi, ebx
 000009E0  66| 8B 1E		    mov bx, WORD PTR [esi]
 000009E3  66| 3B 1D		    cmp bx, prevBlockPos.Y 
	   00000136 R
 000009EA  75 10		    jne NEXT
 000009EC  BE 0000032C R	    mov esi, OFFSET towersType
 000009F1  8B C1		    mov eax, ecx
 000009F3  03 F0		    add esi, eax
 000009F5  0F B6 06		    movzx eax, BYTE PTR [esi]
				    ret
 000009FC			NEXT:
 000009FC  41			    inc ecx
 000009FD  EB B5		    jmp CHECK_LOOP
 000009FF			NOT_FOUND:
 000009FF  B8 00000000		    mov eax, 0
				    ret
 00000A08			getTowerTypeAtPos ENDP
				
				; 新增塔的邏輯
 00000A08			addTowerWithType PROC USES eax ecx esi
 00000A0B  E8 00000058		    call checkTowerAtCurrentPosition
 00000A10  83 F8 01		    cmp eax, 1
 00000A13  74 4F		    je NO_ADD_TYPE
 00000A15  E8 00000259		    call canPlaceTowerAtCurrentPos
 00000A1A  83 F8 00		    cmp eax, 0
 00000A1D  74 45		    je NO_ADD_TYPE
 00000A1F  A1 0000034A R	    mov eax, towerCount
 00000A24  83 F8 1E		    cmp eax, towerMax
 00000A27  7D 3B		    jge NO_ADD_TYPE
				    
				    ; 將新塔資料寫入陣列
 00000A29  8B C8		    mov ecx, eax
 00000A2B  BE 000002B4 R	    mov esi, OFFSET towersPosX
 00000A30  6B C0 02		    imul eax, 2
 00000A33  03 F0		    add esi, eax
 00000A35  66| A1		    mov ax, blockPos.X
	   00000130 R
 00000A3B  66| 89 06		    mov WORD PTR [esi], ax
				    
 00000A3E  BE 000002F0 R	    mov esi, OFFSET towersPosY
 00000A43  8B C1		    mov eax, ecx
 00000A45  6B C0 02		    imul eax, 2
 00000A48  03 F0		    add esi, eax
 00000A4A  66| A1		    mov ax, blockPos.Y
	   00000132 R
 00000A50  66| 89 06		    mov WORD PTR [esi], ax
				    
 00000A53  BE 0000032C R	    mov esi, OFFSET towersType
 00000A58  8B C1		    mov eax, ecx
 00000A5A  03 F0		    add esi, eax
 00000A5C  88 1E		    mov BYTE PTR [esi], bl
				    
 00000A5E  FF 05 0000034A R	    inc towerCount
 00000A64			NO_ADD_TYPE:
				    ret
 00000A68			addTowerWithType ENDP
				
 00000A68			checkTowerAtCurrentPosition PROC USES ebx ecx esi
 00000A6B  B9 00000000		    mov ecx, 0
 00000A70			CHECK_POS_LOOP:
 00000A70  3B 0D 0000034A R	    cmp ecx, towerCount
 00000A76  7D 3C		    jge NO_TOWER_HERE
 00000A78  BE 000002B4 R	    mov esi, OFFSET towersPosX
 00000A7D  8B D9		    mov ebx, ecx
 00000A7F  6B DB 02		    imul ebx, 2
 00000A82  03 F3		    add esi, ebx
 00000A84  66| 8B 1E		    mov bx, WORD PTR [esi]
 00000A87  66| 3B 1D		    cmp bx, blockPos.X
	   00000130 R
 00000A8E  75 18		    jne NEXT_CHECK_POS
 00000A90  BE 000002F0 R	    mov esi, OFFSET towersPosY
 00000A95  8B D9		    mov ebx, ecx
 00000A97  6B DB 02		    imul ebx, 2
 00000A9A  03 F3		    add esi, ebx
 00000A9C  66| 8B 1E		    mov bx, WORD PTR [esi]
 00000A9F  66| 3B 1D		    cmp bx, blockPos.Y
	   00000132 R
 00000AA6  74 03		    je TOWER_HERE
 00000AA8			NEXT_CHECK_POS:
 00000AA8  41			    inc ecx
 00000AA9  EB C5		    jmp CHECK_POS_LOOP
 00000AAB			TOWER_HERE:
 00000AAB  B8 00000001		    mov eax, 1
				    ret
 00000AB4			NO_TOWER_HERE:
 00000AB4  B8 00000000		    mov eax, 0
				    ret
 00000ABD			checkTowerAtCurrentPosition ENDP
				
 00000ABD			deleteTower PROC USES eax ebx ecx esi
 00000AC1  83 3D 0000034A R	    cmp towerCount, 0
	   00
 00000AC8  74 1F		    je DELETE_DONE
 00000ACA  B9 00000000		    mov ecx, 0
 00000ACF			CHECK_TOWER_LOOP:
 00000ACF  3B 0D 0000034A R	    cmp ecx, towerCount
 00000AD5  7D 12		    jge DELETE_DONE
 00000AD7  E8 00000012		    call isTowerAtPositionSimple
 00000ADC  83 F8 01		    cmp eax, 1
 00000ADF  74 03		    je DELETE_FOUND_TOWER
 00000AE1  41			    inc ecx
 00000AE2  EB EB		    jmp CHECK_TOWER_LOOP
 00000AE4			DELETE_FOUND_TOWER:
 00000AE4  E8 00000047		    call removeTowerAtIndexSimple
 00000AE9			DELETE_DONE:
				    ret
 00000AEE			deleteTower ENDP
				
 00000AEE			isTowerAtPositionSimple PROC USES ebx esi
 00000AF0  BE 000002B4 R	    mov esi, OFFSET towersPosX
 00000AF5  8B D9		    mov ebx, ecx
 00000AF7  6B DB 02		    imul ebx, 2
 00000AFA  03 F3		    add esi, ebx
 00000AFC  66| 8B 1E		    mov bx, WORD PTR [esi]
 00000AFF  66| 3B 1D		    cmp bx, blockPos.X
	   00000130 R
 00000B06  75 18		    jne NOT_MATCH_SIMPLE
 00000B08  BE 000002F0 R	    mov esi, OFFSET towersPosY
 00000B0D  8B D9		    mov ebx, ecx
 00000B0F  6B DB 02		    imul ebx, 2
 00000B12  03 F3		    add esi, ebx
 00000B14  66| 8B 1E		    mov bx, WORD PTR [esi]
 00000B17  66| 3B 1D		    cmp bx, blockPos.Y
	   00000132 R
 00000B1E  74 08		    je TOWER_FOUND_AT_POSITION
 00000B20			NOT_MATCH_SIMPLE:
 00000B20  B8 00000000		    mov eax, 0
				    ret
 00000B28			TOWER_FOUND_AT_POSITION:
 00000B28  B8 00000001		    mov eax, 1
				    ret
 00000B30			isTowerAtPositionSimple ENDP
				
 00000B30			removeTowerAtIndexSimple PROC USES eax ebx edx esi edi
 00000B35  8B C1		    mov eax, ecx
 00000B37  8B 1D 0000034A R	    mov ebx, towerCount
 00000B3D  4B			    dec ebx
 00000B3E  3B C3		    cmp eax, ebx
 00000B40  7D 72		    jge JUST_DECREASE_COUNT_SIMPLE
 00000B42  8B D0		    mov edx, eax
				    ; 移動陣列資料填補空缺 (X, Y, Type)
 00000B44  BE 000002B4 R	    mov esi, OFFSET towersPosX
 00000B49  8B C2		    mov eax, edx
 00000B4B  6B C0 02		    imul eax, 2
 00000B4E  03 F0		    add esi, eax
 00000B50  8B FE		    mov edi, esi
 00000B52  83 C6 02		    add esi, 2
 00000B55  8B C3		    mov eax, ebx
 00000B57  2B C2		    sub eax, edx
 00000B59			MOVE_X_LOOP_SIMPLE:
 00000B59  83 F8 00		    cmp eax, 0
 00000B5C  74 0F		    je MOVE_Y_ARRAY_SIMPLE
 00000B5E  66| 8B 0E		    mov cx, WORD PTR [esi]
 00000B61  66| 89 0F		    mov WORD PTR [edi], cx
 00000B64  83 C6 02		    add esi, 2
 00000B67  83 C7 02		    add edi, 2
 00000B6A  48			    dec eax
 00000B6B  EB EC		    jmp MOVE_X_LOOP_SIMPLE
 00000B6D			MOVE_Y_ARRAY_SIMPLE:
 00000B6D  BE 000002F0 R	    mov esi, OFFSET towersPosY
 00000B72  8B C2		    mov eax, edx
 00000B74  6B C0 02		    imul eax, 2
 00000B77  03 F0		    add esi, eax
 00000B79  8B FE		    mov edi, esi
 00000B7B  83 C6 02		    add esi, 2
 00000B7E  8B C3		    mov eax, ebx
 00000B80  2B C2		    sub eax, edx
 00000B82			MOVE_Y_LOOP_SIMPLE:
 00000B82  83 F8 00		    cmp eax, 0
 00000B85  74 0F		    je MOVE_TYPE_ARRAY_SIMPLE
 00000B87  66| 8B 0E		    mov cx, WORD PTR [esi]
 00000B8A  66| 89 0F		    mov WORD PTR [edi], cx
 00000B8D  83 C6 02		    add esi, 2
 00000B90  83 C7 02		    add edi, 2
 00000B93  48			    dec eax
 00000B94  EB EC		    jmp MOVE_Y_LOOP_SIMPLE
 00000B96			MOVE_TYPE_ARRAY_SIMPLE:
 00000B96  BE 0000032C R	    mov esi, OFFSET towersType
 00000B9B  8B C2		    mov eax, edx
 00000B9D  03 F0		    add esi, eax
 00000B9F  8B FE		    mov edi, esi
 00000BA1  46			    inc esi
 00000BA2  8B C3		    mov eax, ebx
 00000BA4  2B C2		    sub eax, edx
 00000BA6			MOVE_TYPE_LOOP_SIMPLE:
 00000BA6  83 F8 00		    cmp eax, 0
 00000BA9  74 09		    je JUST_DECREASE_COUNT_SIMPLE
 00000BAB  8A 0E		    mov cl, BYTE PTR [esi]
 00000BAD  88 0F		    mov BYTE PTR [edi], cl
 00000BAF  46			    inc esi
 00000BB0  47			    inc edi
 00000BB1  48			    dec eax
 00000BB2  EB F2		    jmp MOVE_TYPE_LOOP_SIMPLE
 00000BB4			JUST_DECREASE_COUNT_SIMPLE:
 00000BB4  FF 0D 0000034A R	    dec towerCount
				    ret
 00000BC0			removeTowerAtIndexSimple ENDP
				
 00000BC0			drawTower PROC USES eax ebx ecx edi esi
 00000BC5  8B 44 24 18		    mov eax, [esp+24]
 00000BC9  FF 35 00000128 R	    push DWORD PTR outerBoxPos
 00000BCF  BE 000002B4 R	    mov esi, OFFSET towersPosX
 00000BD4  8B D8		    mov ebx, eax
 00000BD6  6B DB 02		    imul ebx, 2
 00000BD9  03 F3		    add esi, ebx
 00000BDB  66| 8B 06		    mov ax, WORD PTR [esi]
 00000BDE  66| A3		    mov outerBoxPos.X, ax
	   00000128 R
 00000BE4  BE 000002F0 R	    mov esi, OFFSET towersPosY
 00000BE9  8B 44 24 1C		    mov eax, [esp+28]
 00000BED  8B D8		    mov ebx, eax
 00000BEF  6B DB 02		    imul ebx, 2
 00000BF2  03 F3		    add esi, ebx
 00000BF4  66| 8B 06		    mov ax, WORD PTR [esi]
 00000BF7  66| A3		    mov outerBoxPos.Y, ax
	   0000012A R
 00000BFD  BE 0000032C R	    mov esi, OFFSET towersType
 00000C02  8B 44 24 1C		    mov eax, [esp+28]
 00000C06  03 F0		    add esi, eax
 00000C08  8A 1E		    mov bl, BYTE PTR [esi]
 00000C0A  80 FB 01		    cmp bl, 1
 00000C0D  74 1B		    je DRAW_TOWER_A
 00000C0F  80 FB 02		    cmp bl, 2
 00000C12  74 1D		    je DRAW_TOWER_B
 00000C14  80 FB 03		    cmp bl, 3
 00000C17  74 1F		    je DRAW_TOWER_C
 00000C19  80 FB 04		    cmp bl, 4
 00000C1C  74 21		    je DRAW_TOWER_D
 00000C1E  80 FB 05		    cmp bl, 5
 00000C21  74 23		    je DRAW_TOWER_E
 00000C23  E8 0000018B		    call drawATower
 00000C28  EB 21		    jmp DRAW_TOWER_DONE
 00000C2A  E8 00000184		DRAW_TOWER_A: call drawATower
 00000C2F  EB 1A		    jmp DRAW_TOWER_DONE
 00000C31  E8 0000029E		DRAW_TOWER_B: call drawBTower
 00000C36  EB 13		    jmp DRAW_TOWER_DONE
 00000C38  E8 000003B8		DRAW_TOWER_C: call drawCTower
 00000C3D  EB 0C		    jmp DRAW_TOWER_DONE
 00000C3F  E8 000004D2		DRAW_TOWER_D: call drawDTower
 00000C44  EB 05		    jmp DRAW_TOWER_DONE
 00000C46  E8 000005EC		DRAW_TOWER_E: call drawETower
 00000C4B			DRAW_TOWER_DONE:
 00000C4B  8F 05 00000128 R	    pop DWORD PTR outerBoxPos
				    ret 4
 00000C56  C2 0004		drawTower ENDP
 00000C59			
				initMapSystem PROC USES eax ecx esi edi
 00000C59			    mov esi, OFFSET map1Data
 00000C5D  BE 000003F7 R	    mov edi, OFFSET mapData
 00000C62  BF 00000377 R	    mov ecx, (MAP_WIDTH * MAP_HEIGHT)
 00000C67  B9 00000080		    rep movsb
 00000C6C  F3/ A4		    ret
				initMapSystem ENDP
 00000C73			
				canPlaceTowerAtCurrentPos PROC USES ebx ecx esi
 00000C73			    movzx eax, blockPos.X
 00000C76  0F B7 05		    sub eax, 7
	   00000130 R
 00000C7D  83 E8 07		    mov ebx, blockWidth
 00000C80  BB 00000005		    xor edx, edx
 00000C85  33 D2		    div ebx
 00000C87  F7 F3		    mov ebx, eax
 00000C89  8B D8		    movzx eax, blockPos.Y
 00000C8B  0F B7 05		    sub eax, 4
	   00000132 R
 00000C92  83 E8 04		    mov ecx, blockHeight
 00000C95  B9 00000003		    xor edx, edx
 00000C9A  33 D2		    div ecx
 00000C9C  F7 F1		    cmp ebx, MAP_WIDTH
 00000C9E  83 FB 10		    jge CANNOT_PLACE
 00000CA1  7D 25		    cmp eax, MAP_HEIGHT
 00000CA3  83 F8 08		    jge CANNOT_PLACE
 00000CA6  7D 20		    cmp ebx, 0
 00000CA8  83 FB 00		    jl CANNOT_PLACE
 00000CAB  7C 1B		    cmp eax, 0
 00000CAD  83 F8 00		    jl CANNOT_PLACE
 00000CB0  7C 16		    mov ecx, MAP_WIDTH
 00000CB2  B9 00000010		    mul ecx
 00000CB7  F7 E1		    add eax, ebx
 00000CB9  03 C3		    mov esi, OFFSET mapData
 00000CBB  BE 00000377 R	    add esi, eax
 00000CC0  03 F0		    mov al, BYTE PTR [esi]
 00000CC2  8A 06		    cmp al, COMPONENT_EMPTY
 00000CC4  3C 00		    je CAN_PLACE
 00000CC6  74 09		CANNOT_PLACE:
 00000CC8			    mov eax, 0
 00000CC8  B8 00000000		    ret
				CAN_PLACE:
 00000CD1			    mov eax, 1
 00000CD1  B8 00000001		    ret
				canPlaceTowerAtCurrentPos ENDP
 00000CDA			
				drawMapComponents PROC USES eax ebx ecx edx esi edi
 00000CDA			    mov eax, 0
 00000CE0  B8 00000000		DRAW_MAP_Y_LOOP:
 00000CE5			    cmp eax, MAP_HEIGHT
 00000CE5  83 F8 08		    jge DRAW_MAP_DONE
 00000CE8  7D 2B		    mov ebx, 0
 00000CEA  BB 00000000		DRAW_MAP_X_LOOP:
 00000CEF			    cmp ebx, MAP_WIDTH
 00000CEF  83 FB 10		    jge NEXT_MAP_Y
 00000CF2  7D 1E		    push eax
 00000CF4  50			    push ebx
 00000CF5  53			    mov ecx, MAP_WIDTH
 00000CF6  B9 00000010		    mul ecx
 00000CFB  F7 E1		    add eax, ebx
 00000CFD  03 C3		    mov esi, OFFSET mapData
 00000CFF  BE 00000377 R	    add esi, eax
 00000D04  03 F0		    mov cl, BYTE PTR [esi]
 00000D06  8A 0E		    pop ebx
 00000D08  5B			    pop eax
 00000D09  58			    call drawComponent
 00000D0A  E8 0000000D		NEXT_MAP_X:
 00000D0F			    inc ebx
 00000D0F  43			    jmp DRAW_MAP_X_LOOP
 00000D10  EB DD		NEXT_MAP_Y:
 00000D12			    inc eax
 00000D12  40			    jmp DRAW_MAP_Y_LOOP
 00000D13  EB D0		DRAW_MAP_DONE:
 00000D15			    ret
				drawMapComponents ENDP
 00000D1C			
				drawComponent PROC USES eax ebx ecx edx esi edi
 00000D1C			    push ecx
 00000D22  51			    call calculateScreenPosition 
 00000D23  E8 00000062		    pop ecx
 00000D28  59			    movzx eax, cl
 00000D29  0F B6 C1		    mov edx, 15                  
 00000D2C  BA 0000000F		    mul edx
 00000D31  F7 E2		    mov esi, OFFSET componentChars
 00000D33  BE 00000477 R	    add esi, eax
 00000D38  03 F0		    mov ecx, blockHeight
 00000D3A  B9 00000003		DRAW_COMPONENT_Y_LOOP:
 00000D3F			    push ecx
 00000D3F  51			    INVOKE WriteConsoleOutputCharacter, outputHandle, esi, blockWidth, outerBoxPos, ADDR count
				    INVOKE WriteConsoleOutputAttribute, outputHandle, ADDR blockAttributes, blockWidth, outerBoxPos, ADDR cellsWritten
				    add esi, blockWidth
 00000D76  83 C6 05		    inc outerBoxPos.Y
 00000D79  66| FF 05		    pop ecx
	   0000012A R
 00000D80  59			    loop DRAW_COMPONENT_Y_LOOP
 00000D81  E2 BC		    ret
				drawComponent ENDP
 00000D8A			
				calculateScreenPosition PROC
 00000D8A			    push ebx
 00000D8A  53			    push eax
 00000D8B  50			    mov eax, ebx
 00000D8C  8B C3		    mov ecx, blockWidth
 00000D8E  B9 00000005		    mul ecx
 00000D93  F7 E1		    add eax, 7
 00000D95  83 C0 07		    mov outerBoxPos.X, ax
 00000D98  66| A3		    pop eax
	   00000128 R
 00000D9E  58			    push eax
 00000D9F  50			    mov ecx, blockHeight
 00000DA0  B9 00000003		    mul ecx
 00000DA5  F7 E1		    add eax, 4
 00000DA7  83 C0 04		    mov outerBoxPos.Y, ax
 00000DAA  66| A3		    pop eax
	   0000012A R
 00000DB0  58			    pop ebx
 00000DB1  5B			    ret
 00000DB2  C3			calculateScreenPosition ENDP
 00000DB3			
				; =================================================================================
				; [修改] 各式防禦塔外觀 (Tower Visuals)
				; =================================================================================
				
				; Tower A: 加農砲 (Cannon)
				; 造型：/╧\ |█| #####
				drawATower PROC USES esi
 00000DB3			    mov esi, OFFSET attrTowerA 
 00000DB4  BE 00000239 R	    
				    ; Row 1:  /╧\ 
				    INVOKE WriteConsoleOutputAttribute, outputHandle, esi, blockWidth, outerBoxPos, ADDR cellsWritten
				    mov tempBuffer, 20h     ; ' '
 00000DD2  C6 05 000002AF R	    mov tempBuffer+1, 2Fh   ; '/'
	   20
 00000DD9  C6 05 000002B0 R	    mov tempBuffer+2, 0CFh  ; '╧'
	   2F
 00000DE0  C6 05 000002B1 R	    mov tempBuffer+3, 5Ch   ; '\'
	   CF
 00000DE7  C6 05 000002B2 R	    mov tempBuffer+4, 20h   ; ' '
	   5C
 00000DEE  C6 05 000002B3 R	    INVOKE WriteConsoleOutputCharacter, outputHandle, ADDR tempBuffer, blockWidth, outerBoxPos, ADDR count
	   20
				    inc outerBoxPos.Y
 00000E12  66| FF 05		    
	   0000012A R
				    ; Row 2: | █ |
				    INVOKE WriteConsoleOutputAttribute, outputHandle, esi, blockWidth, outerBoxPos, ADDR cellsWritten
				    mov tempBuffer, 7Ch     ; '|'
 00000E32  C6 05 000002AF R	    mov tempBuffer+1, 20h   ; ' '
	   7C
 00000E39  C6 05 000002B0 R	    mov tempBuffer+2, 0DBh  ; '█'
	   20
 00000E40  C6 05 000002B1 R	    mov tempBuffer+3, 20h   ; ' '
	   DB
 00000E47  C6 05 000002B2 R	    mov tempBuffer+4, 7Ch   ; '|'
	   20
 00000E4E  C6 05 000002B3 R	    INVOKE WriteConsoleOutputCharacter, outputHandle, ADDR tempBuffer, blockWidth, outerBoxPos, ADDR count
	   7C
				    inc outerBoxPos.Y
 00000E72  66| FF 05		    
	   0000012A R
				    ; Row 3: #####
				    INVOKE WriteConsoleOutputAttribute, outputHandle, esi, blockWidth, outerBoxPos, ADDR cellsWritten
				    mov tempBuffer, 23h     ; '#'
 00000E92  C6 05 000002AF R	    mov tempBuffer+1, 23h   ; '#'
	   23
 00000E99  C6 05 000002B0 R	    mov tempBuffer+2, 23h   ; '#'
	   23
 00000EA0  C6 05 000002B1 R	    mov tempBuffer+3, 23h   ; '#'
	   23
 00000EA7  C6 05 000002B2 R	    mov tempBuffer+4, 23h   ; '#'
	   23
 00000EAE  C6 05 000002B3 R	    INVOKE WriteConsoleOutputCharacter, outputHandle, ADDR tempBuffer, blockWidth, outerBoxPos, ADDR count
	   23
				    
				    ret
				drawATower ENDP
 00000ED4			
				; Tower B: 狙擊槍 (Sniper)
				; 造型： ╤  ─═╩  ▲
				drawBTower PROC USES esi
 00000ED4			    mov esi, OFFSET attrTowerB
 00000ED5  BE 00000243 R	
				    ; Row 1: 空白
				    INVOKE WriteConsoleOutputAttribute, outputHandle, esi, blockWidth, outerBoxPos, ADDR cellsWritten
				    mov tempBuffer, 20h     ; ' '
 00000EF3  C6 05 000002AF R	    mov tempBuffer+1, 20h   ; ' '
	   20
 00000EFA  C6 05 000002B0 R	    mov tempBuffer+2, 20h   ; ' '
	   20
 00000F01  C6 05 000002B1 R	    mov tempBuffer+3, 20h   ; ' '
	   20
 00000F08  C6 05 000002B2 R	    mov tempBuffer+4, 20h   ; ' '
	   20
 00000F0F  C6 05 000002B3 R	    INVOKE WriteConsoleOutputCharacter, outputHandle, ADDR tempBuffer, blockWidth, outerBoxPos, ADDR count
	   20
				    inc outerBoxPos.Y
 00000F33  66| FF 05		
	   0000012A R
				    ; Row 2: ─═╤╞╦ (槍身)
				    INVOKE WriteConsoleOutputAttribute, outputHandle, esi, blockWidth, outerBoxPos, ADDR cellsWritten
				    mov tempBuffer, 0C4h    ; ─ (槍口)
 00000F53  C6 05 000002AF R	    mov tempBuffer+1, 0CDh  ; ═ (槍管)
	   C4
 00000F5A  C6 05 000002B0 R	    mov tempBuffer+2, 0D1h  ; ╤ (瞄準鏡)
	   CD
 00000F61  C6 05 000002B1 R	    mov tempBuffer+3, 0C6h  ; ╞ (槍身)
	   D1
 00000F68  C6 05 000002B2 R	    mov tempBuffer+4, 0CBh  ; ╦ (槍托)
	   C6
 00000F6F  C6 05 000002B3 R	    INVOKE WriteConsoleOutputCharacter, outputHandle, ADDR tempBuffer, blockWidth, outerBoxPos, ADDR count
	   CB
				    inc outerBoxPos.Y
 00000F93  66| FF 05		
	   0000012A R
				    ; Row 3:  ▲    (三角形腳架)
				    INVOKE WriteConsoleOutputAttribute, outputHandle, esi, blockWidth, outerBoxPos, ADDR cellsWritten
				    mov tempBuffer, 20h     ; ' '
 00000FB3  C6 05 000002AF R	    mov tempBuffer+1, 5Eh   ; ▲
	   20
 00000FBA  C6 05 000002B0 R	    mov tempBuffer+2, 20h   ; ' '
	   5E
 00000FC1  C6 05 000002B1 R	    mov tempBuffer+3, 20h   ; ' '
	   20
 00000FC8  C6 05 000002B2 R	    mov tempBuffer+4, 20h   ; ' '
	   20
 00000FCF  C6 05 000002B3 R	    INVOKE WriteConsoleOutputCharacter, outputHandle, ADDR tempBuffer, blockWidth, outerBoxPos, ADDR count
	   20
				
				    ret
				drawBTower ENDP
 00000FF5			
				
				; Tower C: 寒冰箭 (Ice Arrow) - 向上射擊
				drawCTower PROC USES esi
 00000FF5			    mov esi, OFFSET attrTowerC
 00000FF6  BE 0000024D R	    
				    ; Row 1:   ^   (Tip)
				    INVOKE WriteConsoleOutputAttribute, outputHandle, esi, blockWidth, outerBoxPos, ADDR cellsWritten
				    mov tempBuffer, 20h     ; ' '
 00001014  C6 05 000002AF R	    mov tempBuffer+1, 20h   ; ' '
	   20
 0000101B  C6 05 000002B0 R	    mov tempBuffer+2, 5Eh   ; '^'
	   20
 00001022  C6 05 000002B1 R	    mov tempBuffer+3, 20h   ; ' '
	   5E
 00001029  C6 05 000002B2 R	    mov tempBuffer+4, 20h   ; ' '
	   20
 00001030  C6 05 000002B3 R	    INVOKE WriteConsoleOutputCharacter, outputHandle, ADDR tempBuffer, blockWidth, outerBoxPos, ADDR count
	   20
				    inc outerBoxPos.Y
 00001054  66| FF 05		    
	   0000012A R
				    ; Row 2:  |#|  (Shaft)
				    INVOKE WriteConsoleOutputAttribute, outputHandle, esi, blockWidth, outerBoxPos, ADDR cellsWritten
				    mov tempBuffer, 20h     ; ' '
 00001074  C6 05 000002AF R	    mov tempBuffer+1, 7Ch   ; '|'
	   20
 0000107B  C6 05 000002B0 R	    mov tempBuffer+2, 23h   ; '#'
	   7C
 00001082  C6 05 000002B1 R	    mov tempBuffer+3, 7Ch   ; '|'
	   23
 00001089  C6 05 000002B2 R	    mov tempBuffer+4, 20h   ; ' '
	   7C
 00001090  C6 05 000002B3 R	    INVOKE WriteConsoleOutputCharacter, outputHandle, ADDR tempBuffer, blockWidth, outerBoxPos, ADDR count
	   20
				    inc outerBoxPos.Y
 000010B4  66| FF 05		    
	   0000012A R
				    ; Row 3:  /#\  (Base)
				    INVOKE WriteConsoleOutputAttribute, outputHandle, esi, blockWidth, outerBoxPos, ADDR cellsWritten
				    mov tempBuffer, 2Fh     ; '/'
 000010D4  C6 05 000002AF R	    mov tempBuffer+1, 23h   ; '#'
	   2F
 000010DB  C6 05 000002B0 R	    mov tempBuffer+2, 7Ch   ; '|'
	   23
 000010E2  C6 05 000002B1 R	    mov tempBuffer+3, 23h   ; '#'
	   7C
 000010E9  C6 05 000002B2 R	    mov tempBuffer+4, 5Ch   ; '\'
	   23
 000010F0  C6 05 000002B3 R	    INVOKE WriteConsoleOutputCharacter, outputHandle, ADDR tempBuffer, blockWidth, outerBoxPos, ADDR count
	   5C
				    ret
				drawCTower ENDP
 00001116			
				
				; Tower D: 法師塔 (Mage)
				drawDTower PROC USES esi
 00001116			    mov esi, OFFSET attrTowerD
 00001117  BE 00000257 R	    ; Row 1: 魔法符文
				    INVOKE WriteConsoleOutputAttribute, outputHandle, esi, blockWidth, outerBoxPos, ADDR cellsWritten
				    mov tempBuffer, 20h
 00001135  C6 05 000002AF R	    mov tempBuffer+1, 0DAh  ; ┌
	   20
 0000113C  C6 05 000002B0 R	    mov tempBuffer+2, 0E8h  ; Φ
	   DA
 00001143  C6 05 000002B1 R	    mov tempBuffer+3, 0BFh  ; ┐
	   E8
 0000114A  C6 05 000002B2 R	    mov tempBuffer+4, 20h
	   BF
 00001151  C6 05 000002B3 R	    INVOKE WriteConsoleOutputCharacter, outputHandle, ADDR tempBuffer, blockWidth, outerBoxPos, ADDR count
	   20
				    inc outerBoxPos.Y
 00001175  66| FF 05		    
	   0000012A R
				    ; Row 2: 懸浮座
				    INVOKE WriteConsoleOutputAttribute, outputHandle, esi, blockWidth, outerBoxPos, ADDR cellsWritten
				    mov tempBuffer, 20h
 00001195  C6 05 000002AF R	    mov tempBuffer+1, 0C0h  ; └
	   20
 0000119C  C6 05 000002B0 R	    mov tempBuffer+2, 0B3h  ; │
	   C0
 000011A3  C6 05 000002B1 R	    mov tempBuffer+3, 0D9h  ; ┘
	   B3
 000011AA  C6 05 000002B2 R	    mov tempBuffer+4, 20h
	   D9
 000011B1  C6 05 000002B3 R	    INVOKE WriteConsoleOutputCharacter, outputHandle, ADDR tempBuffer, blockWidth, outerBoxPos, ADDR count
	   20
				    inc outerBoxPos.Y
 000011D5  66| FF 05		    
	   0000012A R
				    ; Row 3: 法陣
				    INVOKE WriteConsoleOutputAttribute, outputHandle, esi, blockWidth, outerBoxPos, ADDR cellsWritten
				    mov tempBuffer, 20h
 000011F5  C6 05 000002AF R	    mov tempBuffer+1, 0C4h  ; ─
	   20
 000011FC  C6 05 000002B0 R	    mov tempBuffer+2, 0CAh  ; ╩
	   C4
 00001203  C6 05 000002B1 R	    mov tempBuffer+3, 0C4h  ; ─
	   CA
 0000120A  C6 05 000002B2 R	    mov tempBuffer+4, 20h
	   C4
 00001211  C6 05 000002B3 R	    INVOKE WriteConsoleOutputCharacter, outputHandle, ADDR tempBuffer, blockWidth, outerBoxPos, ADDR count
	   20
				    ret
				drawDTower ENDP
 00001237			
				; Tower E: 導彈 (Missile) 
				drawETower PROC USES esi
 00001237			mov esi, OFFSET attrTowerC
 00001238  BE 0000024D R	    ; Row 1:   ^   (Tip)
				    INVOKE WriteConsoleOutputAttribute, outputHandle, esi, blockWidth, outerBoxPos, ADDR cellsWritten
				    mov tempBuffer, 20h     ; ' '
 00001256  C6 05 000002AF R	    mov tempBuffer+1, 20h   ; ' '
	   20
 0000125D  C6 05 000002B0 R	    mov tempBuffer+2, 1Eh   ; '^'
	   20
 00001264  C6 05 000002B1 R	    mov tempBuffer+3, 20h   ; ' '
	   1E
 0000126B  C6 05 000002B2 R	    mov tempBuffer+4, 20h   ; ' '
	   20
 00001272  C6 05 000002B3 R	    INVOKE WriteConsoleOutputCharacter, outputHandle, ADDR tempBuffer, blockWidth, outerBoxPos, ADDR count
	   20
				    inc outerBoxPos.Y
 00001296  66| FF 05		    
	   0000012A R
				    ; Row 2:  |#|  (Shaft)
				    INVOKE WriteConsoleOutputAttribute, outputHandle, esi, blockWidth, outerBoxPos, ADDR cellsWritten
				    mov tempBuffer, 20h     ; ' '
 000012B6  C6 05 000002AF R	    mov tempBuffer+1, 7Ch   ; '|'
	   20
 000012BD  C6 05 000002B0 R	    mov tempBuffer+2, 23h   ; '#'
	   7C
 000012C4  C6 05 000002B1 R	    mov tempBuffer+3, 7Ch   ; '|'
	   23
 000012CB  C6 05 000002B2 R	    mov tempBuffer+4, 20h   ; ' '
	   7C
 000012D2  C6 05 000002B3 R	    INVOKE WriteConsoleOutputCharacter, outputHandle, ADDR tempBuffer, blockWidth, outerBoxPos, ADDR count
	   20
				    inc outerBoxPos.Y
 000012F6  66| FF 05		    
	   0000012A R
				    ; Row 3:  /#\  (Base)
				    INVOKE WriteConsoleOutputAttribute, outputHandle, esi, blockWidth, outerBoxPos, ADDR cellsWritten
				    mov tempBuffer, 2Fh     ; '/'
 00001316  C6 05 000002AF R	    mov tempBuffer+1, 23h   ; '#'
	   2F
 0000131D  C6 05 000002B0 R	    mov tempBuffer+2, 7Ch   ; '|'
	   23
 00001324  C6 05 000002B1 R	    mov tempBuffer+3, 23h   ; '#'
	   7C
 0000132B  C6 05 000002B2 R	    mov tempBuffer+4, 5Ch   ; '\'
	   23
 00001332  C6 05 000002B3 R	    INVOKE WriteConsoleOutputCharacter, outputHandle, ADDR tempBuffer, blockWidth, outerBoxPos, ADDR count
	   5C
				    ret
				drawETower ENDP
 00001358			
				drawAllTowers PROC USES ecx
 00001358			    mov ecx, 0
 00001359  B9 00000000		L:
 0000135E			    cmp ecx, towerCount
 0000135E  3B 0D 0000034A R	    jge DONE
 00001364  7D 09		    push ecx
 00001366  51			    call drawTower 
 00001367  E8 FFFFF854		    inc ecx
 0000136C  41			    jmp L
 0000136D  EB EF		DONE:
 0000136F			    ret
				drawAllTowers ENDP
 00001371			
				END main
Microsoft (R) Macro Assembler Version 6.11		    12/01/25 03:04:06
main.asm						     Symbols 2 - 1




Structures and Unions:

                N a m e                  Size
                                         Offset      Type

CONSOLE_CURSOR_INFO  . . . . . .	 00000008
  dwSize . . . . . . . . . . . .	 00000000	 DWord
  bVisible . . . . . . . . . . .	 00000004	 DWord
CONSOLE_SCREEN_BUFFER_INFO . . .	 00000016
  dwSize . . . . . . . . . . . .	 00000000	 DWord
  dwCursorPosition . . . . . . .	 00000004	 DWord
  wAttributes  . . . . . . . . .	 00000008	 Word
  srWindow . . . . . . . . . . .	 0000000A	 QWord
  dwMaximumWindowSize  . . . . .	 00000012	 DWord
COORD  . . . . . . . . . . . . .	 00000004
  X  . . . . . . . . . . . . . .	 00000000	 Word
  Y  . . . . . . . . . . . . . .	 00000002	 Word
FILETIME . . . . . . . . . . . .	 00000008
  loDateTime . . . . . . . . . .	 00000000	 DWord
  hiDateTime . . . . . . . . . .	 00000004	 DWord
FOCUS_EVENT_RECORD . . . . . . .	 00000004
  bSetFocus  . . . . . . . . . .	 00000000	 DWord
FPU_ENVIRON  . . . . . . . . . .	 0000001C
  controlWord  . . . . . . . . .	 00000000	 Word
  statusWord . . . . . . . . . .	 00000004	 Word
  tagWord  . . . . . . . . . . .	 00000008	 Word
  instrPointerOffset . . . . . .	 0000000C	 DWord
  instrPointerSelector . . . . .	 00000010	 DWord
  operandPointerOffset . . . . .	 00000014	 DWord
  operandPointerSelector . . . .	 00000018	 Word
INPUT_RECORD . . . . . . . . . .	 00000014
  EventType  . . . . . . . . . .	 00000000	 Word
  Event  . . . . . . . . . . . .	 00000004	  00000010
  bKeyDown . . . . . . . . . . .	 00000000	 DWord
  wRepeatCount . . . . . . . . .	 00000004	 Word
  wVirtualKeyCode  . . . . . . .	 00000006	 Word
  wVirtualScanCode . . . . . . .	 00000008	 Word
  uChar  . . . . . . . . . . . .	 0000000A	 Word
  UnicodeChar  . . . . . . . . .	 00000000	 Word
  AsciiChar  . . . . . . . . . .	 00000000	 Byte
  dwControlKeyState  . . . . . .	 0000000C	 DWord
  dwMousePosition  . . . . . . .	 00000000	 DWord
  dwButtonState  . . . . . . . .	 00000004	 DWord
  dwMouseControlKeyState . . . .	 00000008	 DWord
  dwEventFlags . . . . . . . . .	 0000000C	 DWord
  dwSize . . . . . . . . . . . .	 00000000	 DWord
  dwCommandId  . . . . . . . . .	 00000000	 DWord
  bSetFocus  . . . . . . . . . .	 00000000	 DWord
KEY_EVENT_RECORD . . . . . . . .	 00000010
  bKeyDown . . . . . . . . . . .	 00000000	 DWord
  wRepeatCount . . . . . . . . .	 00000004	 Word
  wVirtualKeyCode  . . . . . . .	 00000006	 Word
  wVirtualScanCode . . . . . . .	 00000008	 Word
  uChar  . . . . . . . . . . . .	 0000000A	 Word
  UnicodeChar  . . . . . . . . .	 00000000	 Word
  AsciiChar  . . . . . . . . . .	 00000000	 Byte
  dwControlKeyState  . . . . . .	 0000000C	 DWord
MENU_EVENT_RECORD  . . . . . . .	 00000004
  dwCommandId  . . . . . . . . .	 00000000	 DWord
MOUSE_EVENT_RECORD . . . . . . .	 00000010
  dwMousePosition  . . . . . . .	 00000000	 DWord
  dwButtonState  . . . . . . . .	 00000004	 DWord
  dwMouseControlKeyState . . . .	 00000008	 DWord
  dwEventFlags . . . . . . . . .	 0000000C	 DWord
SMALL_RECT . . . . . . . . . . .	 00000008
  Left . . . . . . . . . . . . .	 00000000	 Word
  Top  . . . . . . . . . . . . .	 00000002	 Word
  Right  . . . . . . . . . . . .	 00000004	 Word
  Bottom . . . . . . . . . . . .	 00000006	 Word
SYSTEMTIME . . . . . . . . . . .	 00000010
  wYear  . . . . . . . . . . . .	 00000000	 Word
  wMonth . . . . . . . . . . . .	 00000002	 Word
  wDayOfWeek . . . . . . . . . .	 00000004	 Word
  wDay . . . . . . . . . . . . .	 00000006	 Word
  wHour  . . . . . . . . . . . .	 00000008	 Word
  wMinute  . . . . . . . . . . .	 0000000A	 Word
  wSecond  . . . . . . . . . . .	 0000000C	 Word
  wMilliseconds  . . . . . . . .	 0000000E	 Word
WINDOW_BUFFER_SIZE_RECORD  . . .	 00000004
  dwSize . . . . . . . . . . . .	 00000000	 DWord


Segments and Groups:

                N a m e                 Size     Length   Align   Combine Class

FLAT . . . . . . . . . . . . . .	GROUP
STACK  . . . . . . . . . . . . .	32 Bit	 00001000 DWord	  Stack	  'STACK'	 
_DATA  . . . . . . . . . . . . .	32 Bit	 000004FE DWord	  Public  'DATA'	
_TEXT  . . . . . . . . . . . . .	32 Bit	 00001371 DWord	  Public  'CODE'	


Procedures,  parameters and locals:

                N a m e                 Type     Value    Attr

CloseFile  . . . . . . . . . . .	P Near	 00000000 FLAT	Length= 00000000 External STDCALL
CloseHandle  . . . . . . . . . .	P Near	 00000000 FLAT	Length= 00000000 External STDCALL
Clrscr . . . . . . . . . . . . .	P Near	 00000000 FLAT	Length= 00000000 External STDCALL
CreateFileA  . . . . . . . . . .	P Near	 00000000 FLAT	Length= 00000000 External STDCALL
CreateOutputFile . . . . . . . .	P Near	 00000000 FLAT	Length= 00000000 External STDCALL
Crlf . . . . . . . . . . . . . .	P Near	 00000000 FLAT	Length= 00000000 External STDCALL
Delay  . . . . . . . . . . . . .	P Near	 00000000 FLAT	Length= 00000000 External STDCALL
DumpMem  . . . . . . . . . . . .	P Near	 00000000 FLAT	Length= 00000000 External STDCALL
DumpRegs . . . . . . . . . . . .	P Near	 00000000 FLAT	Length= 00000000 External STDCALL
ExitProcess  . . . . . . . . . .	P Near	 00000000 FLAT	Length= 00000000 External STDCALL
FileTimeToDosDateTime  . . . . .	P Near	 00000000 FLAT	Length= 00000000 External STDCALL
FileTimeToSystemTime . . . . . .	P Near	 00000000 FLAT	Length= 00000000 External STDCALL
FlushConsoleInputBuffer  . . . .	P Near	 00000000 FLAT	Length= 00000000 External STDCALL
FormatMessageA . . . . . . . . .	P Near	 00000000 FLAT	Length= 00000000 External STDCALL
GetCommandLineA  . . . . . . . .	P Near	 00000000 FLAT	Length= 00000000 External STDCALL
GetCommandTail . . . . . . . . .	P Near	 00000000 FLAT	Length= 00000000 External STDCALL
GetConsoleCP . . . . . . . . . .	P Near	 00000000 FLAT	Length= 00000000 External STDCALL
GetConsoleCursorInfo . . . . . .	P Near	 00000000 FLAT	Length= 00000000 External STDCALL
GetConsoleMode . . . . . . . . .	P Near	 00000000 FLAT	Length= 00000000 External STDCALL
GetConsoleScreenBufferInfo . . .	P Near	 00000000 FLAT	Length= 00000000 External STDCALL
GetConsoleWindow . . . . . . . .	P Near	 00000000 FLAT	Length= 00000000 External STDCALL
GetDateTime  . . . . . . . . . .	P Near	 00000000 FLAT	Length= 00000000 External STDCALL
GetFileTime  . . . . . . . . . .	P Near	 00000000 FLAT	Length= 00000000 External STDCALL
GetKeyState  . . . . . . . . . .	P Near	 00000000 FLAT	Length= 00000000 External STDCALL
GetLastError . . . . . . . . . .	P Near	 00000000 FLAT	Length= 00000000 External STDCALL
GetLocalTime . . . . . . . . . .	P Near	 00000000 FLAT	Length= 00000000 External STDCALL
GetMaxXY . . . . . . . . . . . .	P Near	 00000000 FLAT	Length= 00000000 External STDCALL
GetMseconds  . . . . . . . . . .	P Near	 00000000 FLAT	Length= 00000000 External STDCALL
GetNumberOfConsoleInputEvents  .	P Near	 00000000 FLAT	Length= 00000000 External STDCALL
GetProcessHeap . . . . . . . . .	P Near	 00000000 FLAT	Length= 00000000 External STDCALL
GetStdHandle . . . . . . . . . .	P Near	 00000000 FLAT	Length= 00000000 External STDCALL
GetSystemTime  . . . . . . . . .	P Near	 00000000 FLAT	Length= 00000000 External STDCALL
GetTextColor . . . . . . . . . .	P Near	 00000000 FLAT	Length= 00000000 External STDCALL
GetTickCount . . . . . . . . . .	P Near	 00000000 FLAT	Length= 00000000 External STDCALL
Gotoxy . . . . . . . . . . . . .	P Near	 00000000 FLAT	Length= 00000000 External STDCALL
HeapAlloc  . . . . . . . . . . .	P Near	 00000000 FLAT	Length= 00000000 External STDCALL
HeapCreate . . . . . . . . . . .	P Near	 00000000 FLAT	Length= 00000000 External STDCALL
HeapDestroy  . . . . . . . . . .	P Near	 00000000 FLAT	Length= 00000000 External STDCALL
HeapFree . . . . . . . . . . . .	P Near	 00000000 FLAT	Length= 00000000 External STDCALL
HeapSize . . . . . . . . . . . .	P Near	 00000000 FLAT	Length= 00000000 External STDCALL
IsDigit  . . . . . . . . . . . .	P Near	 00000000 FLAT	Length= 00000000 External STDCALL
LocalFree  . . . . . . . . . . .	P Near	 00000000 FLAT	Length= 00000000 External STDCALL
MessageBoxA  . . . . . . . . . .	P Near	 00000000 FLAT	Length= 00000000 External STDCALL
MsgBoxAsk  . . . . . . . . . . .	P Near	 00000000 FLAT	Length= 00000000 External STDCALL
MsgBox . . . . . . . . . . . . .	P Near	 00000000 FLAT	Length= 00000000 External STDCALL
OpenInputFile  . . . . . . . . .	P Near	 00000000 FLAT	Length= 00000000 External STDCALL
ParseDecimal32 . . . . . . . . .	P Near	 00000000 FLAT	Length= 00000000 External STDCALL
ParseInteger32 . . . . . . . . .	P Near	 00000000 FLAT	Length= 00000000 External STDCALL
PeekConsoleInputA  . . . . . . .	P Near	 00000000 FLAT	Length= 00000000 External STDCALL
Random32 . . . . . . . . . . . .	P Near	 00000000 FLAT	Length= 00000000 External STDCALL
RandomRange  . . . . . . . . . .	P Near	 00000000 FLAT	Length= 00000000 External STDCALL
Randomize  . . . . . . . . . . .	P Near	 00000000 FLAT	Length= 00000000 External STDCALL
ReadChar . . . . . . . . . . . .	P Near	 00000000 FLAT	Length= 00000000 External STDCALL
ReadConsoleA . . . . . . . . . .	P Near	 00000000 FLAT	Length= 00000000 External STDCALL
ReadConsoleInputA  . . . . . . .	P Near	 00000000 FLAT	Length= 00000000 External STDCALL
ReadDec  . . . . . . . . . . . .	P Near	 00000000 FLAT	Length= 00000000 External STDCALL
ReadFile . . . . . . . . . . . .	P Near	 00000000 FLAT	Length= 00000000 External STDCALL
ReadFloat  . . . . . . . . . . .	P Near	 00000000 FLAT	Length= 00000000 External STDCALL
ReadFromFile . . . . . . . . . .	P Near	 00000000 FLAT	Length= 00000000 External STDCALL
ReadHex  . . . . . . . . . . . .	P Near	 00000000 FLAT	Length= 00000000 External STDCALL
ReadInt  . . . . . . . . . . . .	P Near	 00000000 FLAT	Length= 00000000 External STDCALL
ReadKeyFlush . . . . . . . . . .	P Near	 00000000 FLAT	Length= 00000000 External STDCALL
ReadKey  . . . . . . . . . . . .	P Near	 00000000 FLAT	Length= 00000000 External STDCALL
ReadString . . . . . . . . . . .	P Near	 00000000 FLAT	Length= 00000000 External STDCALL
SetConsoleCursorInfo . . . . . .	P Near	 00000000 FLAT	Length= 00000000 External STDCALL
SetConsoleCursorPosition . . . .	P Near	 00000000 FLAT	Length= 00000000 External STDCALL
SetConsoleMode . . . . . . . . .	P Near	 00000000 FLAT	Length= 00000000 External STDCALL
SetConsoleScreenBufferSize . . .	P Near	 00000000 FLAT	Length= 00000000 External STDCALL
SetConsoleTextAttribute  . . . .	P Near	 00000000 FLAT	Length= 00000000 External STDCALL
SetConsoleTitleA . . . . . . . .	P Near	 00000000 FLAT	Length= 00000000 External STDCALL
SetConsoleWindowInfo . . . . . .	P Near	 00000000 FLAT	Length= 00000000 External STDCALL
SetFilePointer . . . . . . . . .	P Near	 00000000 FLAT	Length= 00000000 External STDCALL
SetLocalTime . . . . . . . . . .	P Near	 00000000 FLAT	Length= 00000000 External STDCALL
SetTextColor . . . . . . . . . .	P Near	 00000000 FLAT	Length= 00000000 External STDCALL
ShowFPUStack . . . . . . . . . .	P Near	 00000000 FLAT	Length= 00000000 External STDCALL
ShowWindow . . . . . . . . . . .	P Near	 00000000 FLAT	Length= 00000000 External STDCALL
Sleep  . . . . . . . . . . . . .	P Near	 00000000 FLAT	Length= 00000000 External STDCALL
StrLength  . . . . . . . . . . .	P Near	 00000000 FLAT	Length= 00000000 External STDCALL
Str_compare  . . . . . . . . . .	P Near	 00000000 FLAT	Length= 00000000 External STDCALL
Str_copy . . . . . . . . . . . .	P Near	 00000000 FLAT	Length= 00000000 External STDCALL
Str_length . . . . . . . . . . .	P Near	 00000000 FLAT	Length= 00000000 External STDCALL
Str_trim . . . . . . . . . . . .	P Near	 00000000 FLAT	Length= 00000000 External STDCALL
Str_ucase  . . . . . . . . . . .	P Near	 00000000 FLAT	Length= 00000000 External STDCALL
SystemTimeToFileTime . . . . . .	P Near	 00000000 FLAT	Length= 00000000 External STDCALL
WaitMsg  . . . . . . . . . . . .	P Near	 00000000 FLAT	Length= 00000000 External STDCALL
WriteBinB  . . . . . . . . . . .	P Near	 00000000 FLAT	Length= 00000000 External STDCALL
WriteBin . . . . . . . . . . . .	P Near	 00000000 FLAT	Length= 00000000 External STDCALL
WriteChar  . . . . . . . . . . .	P Near	 00000000 FLAT	Length= 00000000 External STDCALL
WriteConsoleA  . . . . . . . . .	P Near	 00000000 FLAT	Length= 00000000 External STDCALL
WriteConsoleOutputAttribute  . .	P Near	 00000000 FLAT	Length= 00000000 External STDCALL
WriteConsoleOutputCharacterA . .	P Near	 00000000 FLAT	Length= 00000000 External STDCALL
WriteDec . . . . . . . . . . . .	P Near	 00000000 FLAT	Length= 00000000 External STDCALL
WriteFile  . . . . . . . . . . .	P Near	 00000000 FLAT	Length= 00000000 External STDCALL
WriteFloat . . . . . . . . . . .	P Near	 00000000 FLAT	Length= 00000000 External STDCALL
WriteHexB  . . . . . . . . . . .	P Near	 00000000 FLAT	Length= 00000000 External STDCALL
WriteHex . . . . . . . . . . . .	P Near	 00000000 FLAT	Length= 00000000 External STDCALL
WriteInt . . . . . . . . . . . .	P Near	 00000000 FLAT	Length= 00000000 External STDCALL
WriteStackFrameName  . . . . . .	P Near	 00000000 FLAT	Length= 00000000 External STDCALL
WriteStackFrame  . . . . . . . .	P Near	 00000000 FLAT	Length= 00000000 External STDCALL
WriteString  . . . . . . . . . .	P Near	 00000000 FLAT	Length= 00000000 External STDCALL
WriteToFile  . . . . . . . . . .	P Near	 00000000 FLAT	Length= 00000000 External STDCALL
WriteWindowsMsg  . . . . . . . .	P Near	 00000000 FLAT	Length= 00000000 External STDCALL
addTowerWithType . . . . . . . .	P Near	 00000A08 _TEXT	Length= 00000060 Public STDCALL
  NO_ADD_TYPE  . . . . . . . . .	L Near	 00000A64 _TEXT	
calculateScreenPosition  . . . .	P Near	 00000D8A _TEXT	Length= 00000029 Public STDCALL
canPlaceTowerAtCurrentPos  . . .	P Near	 00000C73 _TEXT	Length= 00000067 Public STDCALL
  CANNOT_PLACE . . . . . . . . .	L Near	 00000CC8 _TEXT	
  CAN_PLACE  . . . . . . . . . .	L Near	 00000CD1 _TEXT	
checkTowerAtCurrentPosition  . .	P Near	 00000A68 _TEXT	Length= 00000055 Public STDCALL
  CHECK_POS_LOOP . . . . . . . .	L Near	 00000A70 _TEXT	
  NEXT_CHECK_POS . . . . . . . .	L Near	 00000AA8 _TEXT	
  TOWER_HERE . . . . . . . . . .	L Near	 00000AAB _TEXT	
  NO_TOWER_HERE  . . . . . . . .	L Near	 00000AB4 _TEXT	
clearSideMenuCursor  . . . . . .	P Near	 000002CF _TEXT	Length= 000000A1 Public STDCALL
deleteTower  . . . . . . . . . .	P Near	 00000ABD _TEXT	Length= 00000031 Public STDCALL
  CHECK_TOWER_LOOP . . . . . . .	L Near	 00000ACF _TEXT	
  DELETE_FOUND_TOWER . . . . . .	L Near	 00000AE4 _TEXT	
  DELETE_DONE  . . . . . . . . .	L Near	 00000AE9 _TEXT	
drawATower . . . . . . . . . . .	P Near	 00000DB3 _TEXT	Length= 00000121 Public STDCALL
drawAllTowers  . . . . . . . . .	P Near	 00001358 _TEXT	Length= 00000019 Public STDCALL
  L  . . . . . . . . . . . . . .	L Near	 0000135E _TEXT	
  DONE . . . . . . . . . . . . .	L Near	 0000136F _TEXT	
drawBTower . . . . . . . . . . .	P Near	 00000ED4 _TEXT	Length= 00000121 Public STDCALL
drawCTower . . . . . . . . . . .	P Near	 00000FF5 _TEXT	Length= 00000121 Public STDCALL
drawComponent  . . . . . . . . .	P Near	 00000D1C _TEXT	Length= 0000006E Public STDCALL
  DRAW_COMPONENT_Y_LOOP  . . . .	L Near	 00000D3F _TEXT	
drawDTower . . . . . . . . . . .	P Near	 00001116 _TEXT	Length= 00000121 Public STDCALL
drawETower . . . . . . . . . . .	P Near	 00001237 _TEXT	Length= 00000121 Public STDCALL
drawMapComponents  . . . . . . .	P Near	 00000CDA _TEXT	Length= 00000042 Public STDCALL
  DRAW_MAP_Y_LOOP  . . . . . . .	L Near	 00000CE5 _TEXT	
  DRAW_MAP_X_LOOP  . . . . . . .	L Near	 00000CEF _TEXT	
  NEXT_MAP_X . . . . . . . . . .	L Near	 00000D0F _TEXT	
  NEXT_MAP_Y . . . . . . . . . .	L Near	 00000D12 _TEXT	
  DRAW_MAP_DONE  . . . . . . . .	L Near	 00000D15 _TEXT	
drawMovingDashedCursor . . . . .	P Near	 0000065D _TEXT	Length= 000001A5 Public STDCALL
  USE_STYLE  . . . . . . . . . .	L Near	 00000693 _TEXT	
drawSideMenuCursor . . . . . . .	P Near	 00000109 _TEXT	Length= 000001C6 Public STDCALL
  SHOW_NAME_A  . . . . . . . . .	L Near	 0000019D _TEXT	
  SHOW_NAME_B  . . . . . . . . .	L Near	 000001DC _TEXT	
  SHOW_NAME_C  . . . . . . . . .	L Near	 0000021B _TEXT	
  SHOW_NAME_D  . . . . . . . . .	L Near	 00000257 _TEXT	
  SHOW_NAME_E  . . . . . . . . .	L Near	 00000293 _TEXT	
  SKIP_NAME  . . . . . . . . . .	L Near	 000002CD _TEXT	
drawSideMenu . . . . . . . . . .	P Near	 00000094 _TEXT	Length= 000000CF Public STDCALL
  DRAW_MENU_LOOP . . . . . . . .	L Near	 000000A2 _TEXT	
  D_A  . . . . . . . . . . . . .	L Near	 000000DA _TEXT	
  D_B  . . . . . . . . . . . . .	L Near	 000000E1 _TEXT	
  D_C  . . . . . . . . . . . . .	L Near	 000000E8 _TEXT	
  D_D  . . . . . . . . . . . . .	L Near	 000000EF _TEXT	
  D_E  . . . . . . . . . . . . .	L Near	 000000F6 _TEXT	
  D_NEXT . . . . . . . . . . . .	L Near	 000000FB _TEXT	
  DRAW_MENU_FINISH . . . . . . .	L Near	 000000FF _TEXT	
drawTower  . . . . . . . . . . .	P Near	 00000BC0 _TEXT	Length= 00000099 Public STDCALL
  DRAW_TOWER_A . . . . . . . . .	L Near	 00000C2A _TEXT	
  DRAW_TOWER_B . . . . . . . . .	L Near	 00000C31 _TEXT	
  DRAW_TOWER_C . . . . . . . . .	L Near	 00000C38 _TEXT	
  DRAW_TOWER_D . . . . . . . . .	L Near	 00000C3F _TEXT	
  DRAW_TOWER_E . . . . . . . . .	L Near	 00000C46 _TEXT	
  DRAW_TOWER_DONE  . . . . . . .	L Near	 00000C4B _TEXT	
getTowerTypeAtPos  . . . . . . .	P Near	 000009AC _TEXT	Length= 0000005C Public STDCALL
  CHECK_LOOP . . . . . . . . . .	L Near	 000009B4 _TEXT	
  NEXT . . . . . . . . . . . . .	L Near	 000009FC _TEXT	
  NOT_FOUND  . . . . . . . . . .	L Near	 000009FF _TEXT	
handleNormalInput  . . . . . . .	P Near	 00000490 _TEXT	Length= 000000D4 Public STDCALL
  HANDLE_UP  . . . . . . . . . .	L Near	 000004B9 _TEXT	
  HANDLE_DOWN  . . . . . . . . .	L Near	 000004DF _TEXT	
  HANDLE_LEFT  . . . . . . . . .	L Near	 00000505 _TEXT	
  HANDLE_RIGHT . . . . . . . . .	L Near	 00000527 _TEXT	
  HANDLE_X . . . . . . . . . . .	L Near	 0000054D _TEXT	
  END_NORMAL_INPUT . . . . . . .	L Near	 00000557 _TEXT	
handleSideMenuInput  . . . . . .	P Near	 0000038F _TEXT	Length= 00000077 Public STDCALL
  MENU_UP  . . . . . . . . . . .	L Near	 000003A4 _TEXT	
  MENU_DOWN  . . . . . . . . . .	L Near	 000003C4 _TEXT	
  UPDATE_CURSOR  . . . . . . . .	L Near	 000003E4 _TEXT	
  MENU_SELECT  . . . . . . . . .	L Near	 000003EB _TEXT	
  MENU_INPUT_DONE  . . . . . . .	L Near	 00000404 _TEXT	
hasMapComponentAtCursor  . . . .	P Near	 00000802 _TEXT	Length= 00000067 Public STDCALL
  NO_MAP_COMPONENT . . . . . . .	L Near	 00000860 _TEXT	
initBlock  . . . . . . . . . . .	P Near	 0000063C _TEXT	Length= 00000021 Public STDCALL
initConsoleWindow  . . . . . . .	P Near	 00000061 _TEXT	Length= 00000033 Public STDCALL
initMapSystem  . . . . . . . . .	P Near	 00000C59 _TEXT	Length= 0000001A Public STDCALL
isTowerAtPositionSimple  . . . .	P Near	 00000AEE _TEXT	Length= 00000042 Public STDCALL
  NOT_MATCH_SIMPLE . . . . . . .	L Near	 00000B20 _TEXT	
  TOWER_FOUND_AT_POSITION  . . .	L Near	 00000B28 _TEXT	
moveBlock  . . . . . . . . . . .	P Near	 00000406 _TEXT	Length= 0000008A Public STDCALL
  START_MOVE . . . . . . . . . .	L Near	 00000406 _TEXT	
  SKIP_MAP_CURSOR_UPDATE . . . .	L Near	 00000436 _TEXT	
  CALL_MENU_INPUT  . . . . . . .	L Near	 0000047D _TEXT	
  NO_KEY_PRESSED . . . . . . . .	L Near	 00000482 _TEXT	
  EXIT_MOVE  . . . . . . . . . .	L Near	 0000048F _TEXT	
outerBox . . . . . . . . . . . .	P Near	 0000055A _TEXT	Length= 000000E2 Public STDCALL
  L1 . . . . . . . . . . . . . .	L Near	 000005BA _TEXT	
printf . . . . . . . . . . . . .	P Near	 00000000 FLAT	Length= 00000000 External C
removeTowerAtIndexSimple . . . .	P Near	 00000B30 _TEXT	Length= 00000090 Public STDCALL
  MOVE_X_LOOP_SIMPLE . . . . . .	L Near	 00000B59 _TEXT	
  MOVE_Y_ARRAY_SIMPLE  . . . . .	L Near	 00000B6D _TEXT	
  MOVE_Y_LOOP_SIMPLE . . . . . .	L Near	 00000B82 _TEXT	
  MOVE_TYPE_ARRAY_SIMPLE . . . .	L Near	 00000B96 _TEXT	
  MOVE_TYPE_LOOP_SIMPLE  . . . .	L Near	 00000BA6 _TEXT	
  JUST_DECREASE_COUNT_SIMPLE . .	L Near	 00000BB4 _TEXT	
restoreGraphicsAtPos . . . . . .	P Near	 0000088A _TEXT	Length= 00000122 Public STDCALL
  DRAW_A . . . . . . . . . . . .	L Near	 000008D0 _TEXT	
  DRAW_B . . . . . . . . . . . .	L Near	 000008DA _TEXT	
  DRAW_C . . . . . . . . . . . .	L Near	 000008E4 _TEXT	
  DRAW_D . . . . . . . . . . . .	L Near	 000008EE _TEXT	
  DRAW_E . . . . . . . . . . . .	L Near	 000008F8 _TEXT	
  RESTORE_MAP  . . . . . . . . .	L Near	 00000902 _TEXT	
  DRAW_RESTORE_LOOP  . . . . . .	L Near	 0000095C _TEXT	
  RESTORE_DONE . . . . . . . . .	L Near	 000009A0 _TEXT	
scanf  . . . . . . . . . . . . .	P Near	 00000000 FLAT	Length= 00000000 External C
start@0  . . . . . . . . . . . .	P Near	 00000000 _TEXT	Length= 00000061 Public STDCALL
toggleMenuState  . . . . . . . .	P Near	 00000370 _TEXT	Length= 0000001F Public STDCALL
  SWITCH_TO_MENU . . . . . . . .	L Near	 00000389 _TEXT	
  TOGGLE_DONE  . . . . . . . . .	L Near	 0000038E _TEXT	
updateDashAnimation  . . . . . .	P Near	 00000869 _TEXT	Length= 00000021 Public STDCALL
  NO_ANIM_CHANGE . . . . . . . .	L Near	 00000889 _TEXT	
wsprintfA  . . . . . . . . . . .	P Near	 00000000 FLAT	Length= 00000000 External C


Symbols:

                N a m e                 Type     Value    Attr

@CodeSize  . . . . . . . . . . .	Number	 00000000h   
@DataSize  . . . . . . . . . . .	Number	 00000000h   
@Interface . . . . . . . . . . .	Number	 00000003h   
@Model . . . . . . . . . . . . .	Number	 00000007h   
@code  . . . . . . . . . . . . .	Text   	 _TEXT
@data  . . . . . . . . . . . . .	Text   	 FLAT
@fardata?  . . . . . . . . . . .	Text   	 FLAT
@fardata . . . . . . . . . . . .	Text   	 FLAT
@stack . . . . . . . . . . . . .	Text   	 FLAT
ALT_MASK . . . . . . . . . . . .	Number	 00000003h   
CAPSLOCK_ON  . . . . . . . . . .	Number	 00000080h   
COMPONENT_CORNER_1 . . . . . . .	Number	 00000005h   
COMPONENT_CORNER_2 . . . . . . .	Number	 00000006h   
COMPONENT_CORNER_3 . . . . . . .	Number	 00000007h   
COMPONENT_CORNER_4 . . . . . . .	Number	 00000008h   
COMPONENT_EMPTY  . . . . . . . .	Number	 00000000h   
COMPONENT_EXIT . . . . . . . . .	Number	 00000002h   
COMPONENT_OUTLET . . . . . . . .	Number	 00000001h   
COMPONENT_PATH_H . . . . . . . .	Number	 00000003h   
COMPONENT_PATH_V . . . . . . . .	Number	 00000004h   
CREATE_ALWAYS  . . . . . . . . .	Number	 00000002h   
CREATE_NEW . . . . . . . . . . .	Number	 00000001h   
CTRL_MASK  . . . . . . . . . . .	Number	 0000000Ch   
CreateFile . . . . . . . . . . .	Text   	 CreateFileA
DASH_SPEED . . . . . . . . . . .	Number	 00000005h   
DO_NOT_SHARE . . . . . . . . . .	Number	 00000000h   
ENABLE_ECHO_INPUT  . . . . . . .	Number	 00000004h   
ENABLE_LINE_INPUT  . . . . . . .	Number	 00000002h   
ENABLE_MOUSE_INPUT . . . . . . .	Number	 00000010h   
ENABLE_PROCESSED_INPUT . . . . .	Number	 00000001h   
ENABLE_PROCESSED_OUTPUT  . . . .	Number	 00000001h   
ENABLE_WINDOW_INPUT  . . . . . .	Number	 00000008h   
ENABLE_WRAP_AT_EOL_OUTPUT  . . .	Number	 00000002h   
ENHANCED_KEY . . . . . . . . . .	Number	 00000100h   
FALSE  . . . . . . . . . . . . .	Number	 00000000h   
FILE_APPEND_DATA . . . . . . . .	Number	 00000004h   
FILE_ATTRIBUTE_ARCHIVE . . . . .	Number	 00000020h   
FILE_ATTRIBUTE_COMPRESSED  . . .	Number	 00000800h   
FILE_ATTRIBUTE_DEVICE  . . . . .	Number	 00000040h   
FILE_ATTRIBUTE_DIRECTORY . . . .	Number	 00000010h   
FILE_ATTRIBUTE_ENCRYPTED . . . .	Number	 00004000h   
FILE_ATTRIBUTE_HIDDEN  . . . . .	Number	 00000002h   
FILE_ATTRIBUTE_NORMAL  . . . . .	Number	 00000080h   
FILE_ATTRIBUTE_NOT_CONTENT_INDEXED .	Number	 00002000h   
FILE_ATTRIBUTE_OFFLINE . . . . .	Number	 00001000h   
FILE_ATTRIBUTE_READONLY  . . . .	Number	 00000001h   
FILE_ATTRIBUTE_REPARSE_POINT . .	Number	 00000400h   
FILE_ATTRIBUTE_SPARSE_FILE . . .	Number	 00000200h   
FILE_ATTRIBUTE_SYSTEM  . . . . .	Number	 00000004h   
FILE_ATTRIBUTE_TEMPORARY . . . .	Number	 00000100h   
FILE_BEGIN . . . . . . . . . . .	Number	 00000000h   
FILE_CURRENT . . . . . . . . . .	Number	 00000001h   
FILE_DELETE_CHILD  . . . . . . .	Number	 00000040h   
FILE_END . . . . . . . . . . . .	Number	 00000002h   
FILE_READ_DATA . . . . . . . . .	Number	 00000001h   
FILE_SHARE_DELETE  . . . . . . .	Number	 00000004h   
FILE_SHARE_READ  . . . . . . . .	Number	 00000001h   
FILE_SHARE_WRITE . . . . . . . .	Number	 00000002h   
FILE_WRITE_DATA  . . . . . . . .	Number	 00000002h   
FOCUS_EVENT  . . . . . . . . . .	Number	 00000010h   
FORMAT_MESSAGE_ALLOCATE_BUFFER .	Number	 00000100h   
FORMAT_MESSAGE_FROM_SYSTEM . . .	Number	 00001000h   
FormatMessage  . . . . . . . . .	Text   	 FormatMessageA
GENERIC_ALL  . . . . . . . . . .	Number	 10000000h   
GENERIC_EXECUTE  . . . . . . . .	Number	 20000000h   
GENERIC_READ . . . . . . . . . .	Number	 -80000000h   
GENERIC_WRITE  . . . . . . . . .	Number	 40000000h   
GetCommandLine . . . . . . . . .	Text   	 GetCommandLineA
HANDLE . . . . . . . . . . . . .	Text   	 DWORD
HEAP_GENERATE_EXCEPTIONS . . . .	Number	 00000004h   
HEAP_GROWABLE  . . . . . . . . .	Number	 00000002h   
HEAP_NO_SERIALIZE  . . . . . . .	Number	 00000001h   
HEAP_REALLOC_IN_PLACE_ONLY . . .	Number	 00000010h   
HEAP_ZERO_MEMORY . . . . . . . .	Number	 00000008h   
IDABORT  . . . . . . . . . . . .	Number	 00000003h   
IDCANCEL . . . . . . . . . . . .	Number	 00000002h   
IDCLOSE  . . . . . . . . . . . .	Number	 00000008h   
IDCONTINUE . . . . . . . . . . .	Number	 0000000Bh   
IDHELP . . . . . . . . . . . . .	Number	 00000009h   
IDIGNORE . . . . . . . . . . . .	Number	 00000005h   
IDNO . . . . . . . . . . . . . .	Number	 00000007h   
IDOK . . . . . . . . . . . . . .	Number	 00000001h   
IDRETRY  . . . . . . . . . . . .	Number	 00000004h   
IDTIMEOUT  . . . . . . . . . . .	Number	 00007D00h   
IDTRYAGAIN . . . . . . . . . . .	Number	 0000000Ah   
IDYES  . . . . . . . . . . . . .	Number	 00000006h   
INVALID_HANDLE_VALUE . . . . . .	Number	 -00000001h   
KBDOWN_FLAG  . . . . . . . . . .	Number	 00000001h   
KEY_EVENT  . . . . . . . . . . .	Number	 00000001h   
KEY_MASKS  . . . . . . . . . . .	Number	 0000001Fh   
LEFT_ALT_PRESSED . . . . . . . .	Number	 00000002h   
LEFT_CTRL_PRESSED  . . . . . . .	Number	 00000008h   
MAP_HEIGHT . . . . . . . . . . .	Number	 00000008h   
MAP_WIDTH  . . . . . . . . . . .	Number	 00000010h   
MB_ABORTRETRYIGNORE  . . . . . .	Number	 00000002h   
MB_APPLMODAL . . . . . . . . . .	Number	 00000000h   
MB_CANCELTRYCONTINUE . . . . . .	Number	 00000006h   
MB_DEFBUTTON1  . . . . . . . . .	Number	 00000000h   
MB_DEFBUTTON2  . . . . . . . . .	Number	 00000100h   
MB_DEFBUTTON3  . . . . . . . . .	Number	 00000200h   
MB_DEFBUTTON4  . . . . . . . . .	Number	 00000300h   
MB_HELP  . . . . . . . . . . . .	Number	 00004000h   
MB_ICONASTERISK  . . . . . . . .	Number	 00000040h   
MB_ICONERROR . . . . . . . . . .	Number	 00000010h   
MB_ICONEXCLAMATION . . . . . . .	Number	 00000030h   
MB_ICONHAND  . . . . . . . . . .	Number	 00000010h   
MB_ICONINFORMATION . . . . . . .	Number	 00000040h   
MB_ICONQUESTION  . . . . . . . .	Number	 00000020h   
MB_ICONSTOP  . . . . . . . . . .	Number	 00000010h   
MB_ICONWARNING . . . . . . . . .	Number	 00000030h   
MB_OKCANCEL  . . . . . . . . . .	Number	 00000001h   
MB_OK  . . . . . . . . . . . . .	Number	 00000000h   
MB_RETRYCANCEL . . . . . . . . .	Number	 00000005h   
MB_SYSTEMMODAL . . . . . . . . .	Number	 00001000h   
MB_TASKMODAL . . . . . . . . . .	Number	 00002000h   
MB_USERICON  . . . . . . . . . .	Number	 00000080h   
MB_YESNOCANCEL . . . . . . . . .	Number	 00000003h   
MB_YESNO . . . . . . . . . . . .	Number	 00000004h   
MENU_EVENT . . . . . . . . . . .	Number	 00000008h   
MOUSE_EVENT  . . . . . . . . . .	Number	 00000002h   
MessageBox . . . . . . . . . . .	Text   	 MessageBoxA
NULL . . . . . . . . . . . . . .	Number	 00000000h   
NUMLOCK_ON . . . . . . . . . . .	Number	 00000020h   
OPEN_ALWAYS  . . . . . . . . . .	Number	 00000004h   
OPEN_EXISTING  . . . . . . . . .	Number	 00000003h   
PeekConsoleInput . . . . . . . .	Text   	 PeekConsoleInputA
RIGHT_ALT_PRESSED  . . . . . . .	Number	 00000001h   
RIGHT_CTRL_PRESSED . . . . . . .	Number	 00000004h   
ReadConsoleInput . . . . . . . .	Text   	 ReadConsoleInputA
ReadConsole  . . . . . . . . . .	Text   	 ReadConsoleA
SCROLLLOCK_ON  . . . . . . . . .	Number	 00000040h   
SHIFT_MASK . . . . . . . . . . .	Number	 00000010h   
SHIFT_PRESSED  . . . . . . . . .	Number	 00000010h   
SIDE_MENU_SPACING  . . . . . . .	Number	 00000005h   
SIDE_MENU_X  . . . . . . . . . .	Number	 0000005Ah   
SIDE_MENU_Y  . . . . . . . . . .	Number	 00000004h   
STD_ERROR_HANDLE . . . . . . . .	Number	 -0000000Ch   
STD_INPUT_HANDLE . . . . . . . .	Number	 -0000000Ah   
STD_OUTPUT_HANDLE  . . . . . . .	Number	 -0000000Bh   
SW_MAXIMIZE  . . . . . . . . . .	Number	 00000003h   
SetConsoleTitle  . . . . . . . .	Text   	 SetConsoleTitleA
TAB  . . . . . . . . . . . . . .	Number	 00000009h   
TOWER_MENU_COUNT . . . . . . . .	Number	 00000005h   
TRUE . . . . . . . . . . . . . .	Number	 00000001h   
TRUNCATE_EXISTING  . . . . . . .	Number	 00000005h   
VK_11  . . . . . . . . . . . . .	Number	 000000BDh   
VK_12  . . . . . . . . . . . . .	Number	 000000BBh   
VK_ADD . . . . . . . . . . . . .	Number	 0000006Bh   
VK_BACK  . . . . . . . . . . . .	Number	 00000008h   
VK_CANCEL  . . . . . . . . . . .	Number	 00000003h   
VK_CAPITAL . . . . . . . . . . .	Number	 00000014h   
VK_CLEAR . . . . . . . . . . . .	Number	 0000000Ch   
VK_CONTROL . . . . . . . . . . .	Number	 00000011h   
VK_DECIMAL . . . . . . . . . . .	Number	 0000006Eh   
VK_DELETE  . . . . . . . . . . .	Number	 0000002Eh   
VK_DIVIDE  . . . . . . . . . . .	Number	 0000006Fh   
VK_DOWN  . . . . . . . . . . . .	Number	 00000028h   
VK_END . . . . . . . . . . . . .	Number	 00000023h   
VK_ESCAPE  . . . . . . . . . . .	Number	 0000001Bh   
VK_EXECUTE . . . . . . . . . . .	Number	 0000002Bh   
VK_F10 . . . . . . . . . . . . .	Number	 00000079h   
VK_F11 . . . . . . . . . . . . .	Number	 0000007Ah   
VK_F12 . . . . . . . . . . . . .	Number	 0000007Bh   
VK_F13 . . . . . . . . . . . . .	Number	 0000007Ch   
VK_F14 . . . . . . . . . . . . .	Number	 0000007Dh   
VK_F15 . . . . . . . . . . . . .	Number	 0000007Eh   
VK_F16 . . . . . . . . . . . . .	Number	 0000007Fh   
VK_F17 . . . . . . . . . . . . .	Number	 00000080h   
VK_F18 . . . . . . . . . . . . .	Number	 00000081h   
VK_F19 . . . . . . . . . . . . .	Number	 00000082h   
VK_F1  . . . . . . . . . . . . .	Number	 00000070h   
VK_F20 . . . . . . . . . . . . .	Number	 00000083h   
VK_F21 . . . . . . . . . . . . .	Number	 00000084h   
VK_F22 . . . . . . . . . . . . .	Number	 00000085h   
VK_F23 . . . . . . . . . . . . .	Number	 00000086h   
VK_F24 . . . . . . . . . . . . .	Number	 00000087h   
VK_F2  . . . . . . . . . . . . .	Number	 00000071h   
VK_F3  . . . . . . . . . . . . .	Number	 00000072h   
VK_F4  . . . . . . . . . . . . .	Number	 00000073h   
VK_F5  . . . . . . . . . . . . .	Number	 00000074h   
VK_F6  . . . . . . . . . . . . .	Number	 00000075h   
VK_F7  . . . . . . . . . . . . .	Number	 00000076h   
VK_F8  . . . . . . . . . . . . .	Number	 00000077h   
VK_F9  . . . . . . . . . . . . .	Number	 00000078h   
VK_HELP  . . . . . . . . . . . .	Number	 0000002Fh   
VK_HOME  . . . . . . . . . . . .	Number	 00000024h   
VK_INSERT  . . . . . . . . . . .	Number	 0000002Dh   
VK_LBUTTON . . . . . . . . . . .	Number	 00000001h   
VK_LCONTROL  . . . . . . . . . .	Number	 000000A2h   
VK_LEFT  . . . . . . . . . . . .	Number	 00000025h   
VK_LMENU . . . . . . . . . . . .	Number	 000000A4h   
VK_LSHIFT  . . . . . . . . . . .	Number	 000000A0h   
VK_MENU  . . . . . . . . . . . .	Number	 00000012h   
VK_MULTIPLY  . . . . . . . . . .	Number	 0000006Ah   
VK_NEXT  . . . . . . . . . . . .	Number	 00000022h   
VK_NUMLOCK . . . . . . . . . . .	Number	 00000090h   
VK_NUMPAD0 . . . . . . . . . . .	Number	 00000060h   
VK_NUMPAD1 . . . . . . . . . . .	Number	 00000061h   
VK_NUMPAD2 . . . . . . . . . . .	Number	 00000062h   
VK_NUMPAD3 . . . . . . . . . . .	Number	 00000063h   
VK_NUMPAD4 . . . . . . . . . . .	Number	 00000064h   
VK_NUMPAD5 . . . . . . . . . . .	Number	 00000065h   
VK_NUMPAD6 . . . . . . . . . . .	Number	 00000066h   
VK_NUMPAD7 . . . . . . . . . . .	Number	 00000067h   
VK_NUMPAD8 . . . . . . . . . . .	Number	 00000068h   
VK_NUMPAD9 . . . . . . . . . . .	Number	 00000069h   
VK_PAUSE . . . . . . . . . . . .	Number	 00000013h   
VK_PRINT . . . . . . . . . . . .	Number	 0000002Ah   
VK_PRIOR . . . . . . . . . . . .	Number	 00000021h   
VK_RBUTTON . . . . . . . . . . .	Number	 00000002h   
VK_RCONTROL  . . . . . . . . . .	Number	 000000A3h   
VK_RETURN  . . . . . . . . . . .	Number	 0000000Dh   
VK_RIGHT . . . . . . . . . . . .	Number	 00000027h   
VK_RMENU . . . . . . . . . . . .	Number	 000000A5h   
VK_RSHIFT  . . . . . . . . . . .	Number	 000000A1h   
VK_SCROLL  . . . . . . . . . . .	Number	 00000091h   
VK_SEPARATER . . . . . . . . . .	Number	 0000006Ch   
VK_SHIFT . . . . . . . . . . . .	Number	 00000010h   
VK_SNAPSHOT  . . . . . . . . . .	Number	 0000002Ch   
VK_SPACE . . . . . . . . . . . .	Number	 00000020h   
VK_SUBTRACT  . . . . . . . . . .	Number	 0000006Dh   
VK_TAB . . . . . . . . . . . . .	Number	 00000009h   
VK_UP  . . . . . . . . . . . . .	Number	 00000026h   
WINDOW_BUFFER_SIZE_EVENT . . . .	Number	 00000004h   
WINDOW_HEIGHT  . . . . . . . . .	Number	 00000028h   
WINDOW_WIDTH . . . . . . . . . .	Number	 00000078h   
WriteConsoleOutputCharacter  . .	Text   	 WriteConsoleOutputCharacterA
WriteConsole . . . . . . . . . .	Text   	 WriteConsoleA
attrMenuCursor . . . . . . . . .	Word	 0000028F _DATA	
attrMenuName . . . . . . . . . .	Word	 0000029B _DATA	
attrTowerA . . . . . . . . . . .	Word	 00000239 _DATA	
attrTowerB . . . . . . . . . . .	Word	 00000243 _DATA	
attrTowerC . . . . . . . . . . .	Word	 0000024D _DATA	
attrTowerD . . . . . . . . . . .	Word	 00000257 _DATA	
attrTowerE . . . . . . . . . . .	Word	 00000261 _DATA	
black  . . . . . . . . . . . . .	Number	 00000000h   
blockAttributes  . . . . . . . .	Word	 000001E9 _DATA	
blockHeight  . . . . . . . . . .	Number	 00000003h   
blockPosInit . . . . . . . . . .	COORD	 0000012C _DATA	
blockPos . . . . . . . . . . . .	COORD	 00000130 _DATA	
blockWidth . . . . . . . . . . .	Number	 00000005h   
blue . . . . . . . . . . . . . .	Number	 00000001h   
brown  . . . . . . . . . . . . .	Number	 00000006h   
cellsWritten . . . . . . . . . .	DWord	 00000118 _DATA	
component0 . . . . . . . . . . .	Byte	 00000477 _DATA	
component1 . . . . . . . . . . .	Byte	 00000486 _DATA	
component2 . . . . . . . . . . .	Byte	 00000495 _DATA	
component3 . . . . . . . . . . .	Byte	 000004A4 _DATA	
component4 . . . . . . . . . . .	Byte	 000004B3 _DATA	
component5 . . . . . . . . . . .	Byte	 000004C2 _DATA	
component6 . . . . . . . . . . .	Byte	 000004D1 _DATA	
component7 . . . . . . . . . . .	Byte	 000004E0 _DATA	
component8 . . . . . . . . . . .	Byte	 000004EF _DATA	
componentChars . . . . . . . . .	Byte	 00000477 _DATA	
consoleSize  . . . . . . . . . .	COORD	 00000010 _DATA	
count  . . . . . . . . . . . . .	DWord	 0000011C _DATA	
currentBuildType . . . . . . . .	Byte	 00000140 _DATA	
cursorAttr . . . . . . . . . . .	Word	 000001F3 _DATA	
cyan . . . . . . . . . . . . . .	Number	 00000003h   
dashAnimState  . . . . . . . . .	DWord	 0000035B _DATA	
dashStyle1 . . . . . . . . . . .	Byte	 0000035F _DATA	
dashStyle2 . . . . . . . . . . .	Byte	 0000036B _DATA	
dashTimer  . . . . . . . . . . .	DWord	 00000357 _DATA	
emptyLine  . . . . . . . . . . .	Byte	 000001FD _DATA	
exit . . . . . . . . . . . . . .	Text   	 INVOKE ExitProcess,0
gray . . . . . . . . . . . . . .	Number	 00000008h   
green  . . . . . . . . . . . . .	Number	 00000002h   
inputHandle  . . . . . . . . . .	DWord	 00000114 _DATA	
lightBlue  . . . . . . . . . . .	Number	 00000009h   
lightCyan  . . . . . . . . . . .	Number	 0000000Bh   
lightGray  . . . . . . . . . . .	Number	 00000007h   
lightGreen . . . . . . . . . . .	Number	 0000000Ah   
lightMagenta . . . . . . . . . .	Number	 0000000Dh   
lightRed . . . . . . . . . . . .	Number	 0000000Ch   
magenta  . . . . . . . . . . . .	Number	 00000005h   
main . . . . . . . . . . . . . .	Text   	 start@0
map1Data . . . . . . . . . . . .	Byte	 000003F7 _DATA	
mapData  . . . . . . . . . . . .	Byte	 00000377 _DATA	
menuCursorStr  . . . . . . . . .	Byte	 00000297 _DATA	
menuState  . . . . . . . . . . .	DWord	 0000034E _DATA	
newBufferSize  . . . . . . . . .	COORD	 00000000 _DATA	
numEvents  . . . . . . . . . . .	DWord	 00000120 _DATA	
outerAttributes  . . . . . . . .	Word	 00000141 _DATA	
outerBoxBody . . . . . . . . . .	Byte	 00000068 _DATA	
outerBoxBottom . . . . . . . . .	Byte	 000000BC _DATA	
outerBoxHeight . . . . . . . . .	Number	 0000001Ah   
outerBoxPosInit  . . . . . . . .	COORD	 00000124 _DATA	
outerBoxPos  . . . . . . . . . .	COORD	 00000128 _DATA	
outerBoxTop  . . . . . . . . . .	Byte	 00000014 _DATA	
outerBoxWidth  . . . . . . . . .	Number	 00000054h   
outputHandle . . . . . . . . . .	DWord	 00000110 _DATA	
prevBlockPos . . . . . . . . . .	COORD	 00000134 _DATA	
red  . . . . . . . . . . . . . .	Number	 00000004h   
sideMenuCursorIndex  . . . . . .	DWord	 00000138 _DATA	
sideMenuCursorPos  . . . . . . .	COORD	 0000013C _DATA	
strNameA . . . . . . . . . . . .	Byte	 0000026B _DATA	
strNameB . . . . . . . . . . . .	Byte	 00000272 _DATA	
strNameC . . . . . . . . . . . .	Byte	 00000279 _DATA	
strNameD . . . . . . . . . . . .	Byte	 00000280 _DATA	
strNameE . . . . . . . . . . . .	Byte	 00000287 _DATA	
tempBuffer . . . . . . . . . . .	Byte	 000002AF _DATA	
towerCount . . . . . . . . . . .	DWord	 0000034A _DATA	
towerMax . . . . . . . . . . . .	Number	 0000001Eh   
towerTypes . . . . . . . . . . .	Byte	 00000352 _DATA	
towersPosX . . . . . . . . . . .	Word	 000002B4 _DATA	
towersPosY . . . . . . . . . . .	Word	 000002F0 _DATA	
towersType . . . . . . . . . . .	Byte	 0000032C _DATA	
white  . . . . . . . . . . . . .	Number	 0000000Fh   
windowHandle . . . . . . . . . .	DWord	 00000004 _DATA	
windowRect . . . . . . . . . . .	SMALL_RECT  00000008 _DATA	
wsprintf . . . . . . . . . . . .	Text   	 wsprintfA
yellow . . . . . . . . . . . . .	Number	 0000000Eh   

	   0 Warnings
	   0 Errors
